
c1m3.out:     file format elf32-littlearm


Disassembly of section .text:

00000000 <deregister_tm_clones>:
       0:	4803      	ldr	r0, [pc, #12]	@ (10 <deregister_tm_clones+0x10>)
       2:	4b04      	ldr	r3, [pc, #16]	@ (14 <deregister_tm_clones+0x14>)
       4:	4283      	cmp	r3, r0
       6:	d002      	beq.n	e <deregister_tm_clones+0xe>
       8:	4b03      	ldr	r3, [pc, #12]	@ (18 <deregister_tm_clones+0x18>)
       a:	b103      	cbz	r3, e <deregister_tm_clones+0xe>
       c:	4718      	bx	r3
       e:	4770      	bx	lr
      10:	20000574 	andcs	r0, r0, r4, ror r5
      14:	20000574 	andcs	r0, r0, r4, ror r5
      18:	00000000 	andeq	r0, r0, r0

0000001c <register_tm_clones>:
      1c:	4805      	ldr	r0, [pc, #20]	@ (34 <register_tm_clones+0x18>)
      1e:	4b06      	ldr	r3, [pc, #24]	@ (38 <register_tm_clones+0x1c>)
      20:	1a1b      	subs	r3, r3, r0
      22:	0fd9      	lsrs	r1, r3, #31
      24:	eb01 01a3 	add.w	r1, r1, r3, asr #2
      28:	1049      	asrs	r1, r1, #1
      2a:	d002      	beq.n	32 <register_tm_clones+0x16>
      2c:	4b03      	ldr	r3, [pc, #12]	@ (3c <register_tm_clones+0x20>)
      2e:	b103      	cbz	r3, 32 <register_tm_clones+0x16>
      30:	4718      	bx	r3
      32:	4770      	bx	lr
      34:	20000574 	andcs	r0, r0, r4, ror r5
      38:	20000574 	andcs	r0, r0, r4, ror r5
      3c:	00000000 	andeq	r0, r0, r0

00000040 <__do_global_dtors_aux>:
      40:	b510      	push	{r4, lr}
      42:	4c06      	ldr	r4, [pc, #24]	@ (5c <__do_global_dtors_aux+0x1c>)
      44:	7823      	ldrb	r3, [r4, #0]
      46:	b943      	cbnz	r3, 5a <__do_global_dtors_aux+0x1a>
      48:	f7ff ffda 	bl	0 <deregister_tm_clones>
      4c:	4b04      	ldr	r3, [pc, #16]	@ (60 <__do_global_dtors_aux+0x20>)
      4e:	b113      	cbz	r3, 56 <__do_global_dtors_aux+0x16>
      50:	4804      	ldr	r0, [pc, #16]	@ (64 <__do_global_dtors_aux+0x24>)
      52:	f3af 8000 	nop.w
      56:	2301      	movs	r3, #1
      58:	7023      	strb	r3, [r4, #0]
      5a:	bd10      	pop	{r4, pc}
      5c:	20000574 	andcs	r0, r0, r4, ror r5
      60:	00000000 	andeq	r0, r0, r0
      64:	000013d4 	ldrdeq	r1, [r0], -r4

00000068 <frame_dummy>:
      68:	b508      	push	{r3, lr}
      6a:	4b04      	ldr	r3, [pc, #16]	@ (7c <frame_dummy+0x14>)
      6c:	b11b      	cbz	r3, 76 <frame_dummy+0xe>
      6e:	4904      	ldr	r1, [pc, #16]	@ (80 <frame_dummy+0x18>)
      70:	4804      	ldr	r0, [pc, #16]	@ (84 <frame_dummy+0x1c>)
      72:	f3af 8000 	nop.w
      76:	e8bd 4008 	ldmia.w	sp!, {r3, lr}
      7a:	e7cf      	b.n	1c <register_tm_clones>
      7c:	00000000 	andeq	r0, r0, r0
      80:	20000578 	andcs	r0, r0, r8, ror r5
      84:	000013d4 	ldrdeq	r1, [r0], -r4

00000088 <_stack_init>:
      88:	f5a3 3a80 	sub.w	sl, r3, #65536	@ 0x10000
      8c:	4770      	bx	lr
      8e:	bf00      	nop

00000090 <_mainCRTStartup>:
      90:	4b15      	ldr	r3, [pc, #84]	@ (e8 <_mainCRTStartup+0x58>)
      92:	2b00      	cmp	r3, #0
      94:	bf08      	it	eq
      96:	4b11      	ldreq	r3, [pc, #68]	@ (dc <_mainCRTStartup+0x4c>)
      98:	469d      	mov	sp, r3
      9a:	f7ff fff5 	bl	88 <_stack_init>
      9e:	2100      	movs	r1, #0
      a0:	468b      	mov	fp, r1
      a2:	460f      	mov	r7, r1
      a4:	4811      	ldr	r0, [pc, #68]	@ (ec <_mainCRTStartup+0x5c>)
      a6:	4a12      	ldr	r2, [pc, #72]	@ (f0 <_mainCRTStartup+0x60>)
      a8:	1a12      	subs	r2, r2, r0
      aa:	f000 f88b 	bl	1c4 <memset>
      ae:	4b0c      	ldr	r3, [pc, #48]	@ (e0 <_mainCRTStartup+0x50>)
      b0:	2b00      	cmp	r3, #0
      b2:	d000      	beq.n	b6 <_mainCRTStartup+0x26>
      b4:	4798      	blx	r3
      b6:	4b0b      	ldr	r3, [pc, #44]	@ (e4 <_mainCRTStartup+0x54>)
      b8:	2b00      	cmp	r3, #0
      ba:	d000      	beq.n	be <_mainCRTStartup+0x2e>
      bc:	4798      	blx	r3
      be:	2000      	movs	r0, #0
      c0:	2100      	movs	r1, #0
      c2:	0004      	movs	r4, r0
      c4:	000d      	movs	r5, r1
      c6:	480b      	ldr	r0, [pc, #44]	@ (f4 <_mainCRTStartup+0x64>)
      c8:	f000 f914 	bl	2f4 <atexit>
      cc:	f000 f8dc 	bl	288 <__libc_init_array>
      d0:	0020      	movs	r0, r4
      d2:	0029      	movs	r1, r5
      d4:	f000 f810 	bl	f8 <main>
      d8:	f000 f8fe 	bl	2d8 <exit>
      dc:	00080000 	andeq	r0, r8, r0
	...
      e8:	200008a8 	andcs	r0, r0, r8, lsr #17
      ec:	20000574 	andcs	r0, r0, r4, ror r5
      f0:	200008a8 	andcs	r0, r0, r8, lsr #17
      f4:	00000301 	andeq	r0, r0, r1, lsl #6

000000f8 <main>:
      f8:	b590      	push	{r4, r7, lr}
      fa:	b083      	sub	sp, #12
      fc:	af00      	add	r7, sp, #0
      fe:	230c      	movs	r3, #12
     100:	603b      	str	r3, [r7, #0]
     102:	232d      	movs	r3, #45	@ 0x2d
     104:	461a      	mov	r2, r3
     106:	4613      	mov	r3, r2
     108:	009b      	lsls	r3, r3, #2
     10a:	4413      	add	r3, r2
     10c:	005b      	lsls	r3, r3, #1
     10e:	4618      	mov	r0, r3
     110:	f000 f8aa 	bl	268 <malloc>
     114:	4603      	mov	r3, r0
     116:	607b      	str	r3, [r7, #4]
     118:	687b      	ldr	r3, [r7, #4]
     11a:	2b00      	cmp	r3, #0
     11c:	d102      	bne.n	124 <main+0x2c>
     11e:	f04f 33ff 	mov.w	r3, #4294967295	@ 0xffffffff
     122:	e00e      	b.n	142 <main+0x4a>
     124:	2400      	movs	r4, #0
     126:	e008      	b.n	13a <main+0x42>
     128:	6878      	ldr	r0, [r7, #4]
     12a:	f000 f811 	bl	150 <func>
     12e:	4603      	mov	r3, r0
     130:	4a06      	ldr	r2, [pc, #24]	@ (14c <main+0x54>)
     132:	6013      	str	r3, [r2, #0]
     134:	683b      	ldr	r3, [r7, #0]
     136:	3301      	adds	r3, #1
     138:	603b      	str	r3, [r7, #0]
     13a:	232d      	movs	r3, #45	@ 0x2d
     13c:	429c      	cmp	r4, r3
     13e:	dbf3      	blt.n	128 <main+0x30>
     140:	2300      	movs	r3, #0
     142:	4618      	mov	r0, r3
     144:	370c      	adds	r7, #12
     146:	46bd      	mov	sp, r7
     148:	bd90      	pop	{r4, r7, pc}
     14a:	bf00      	nop
     14c:	20000590 	mulcs	r0, r0, r5

00000150 <func>:
     150:	b480      	push	{r7}
     152:	b085      	sub	sp, #20
     154:	af00      	add	r7, sp, #0
     156:	6078      	str	r0, [r7, #4]
     158:	2300      	movs	r3, #0
     15a:	60fb      	str	r3, [r7, #12]
     15c:	4b16      	ldr	r3, [pc, #88]	@ (1b8 <func+0x68>)
     15e:	60bb      	str	r3, [r7, #8]
     160:	4b16      	ldr	r3, [pc, #88]	@ (1bc <func+0x6c>)
     162:	681b      	ldr	r3, [r3, #0]
     164:	3301      	adds	r3, #1
     166:	4a15      	ldr	r2, [pc, #84]	@ (1bc <func+0x6c>)
     168:	6013      	str	r3, [r2, #0]
     16a:	4b14      	ldr	r3, [pc, #80]	@ (1bc <func+0x6c>)
     16c:	681b      	ldr	r3, [r3, #0]
     16e:	009b      	lsls	r3, r3, #2
     170:	4a13      	ldr	r2, [pc, #76]	@ (1c0 <func+0x70>)
     172:	4413      	add	r3, r2
     174:	68fa      	ldr	r2, [r7, #12]
     176:	601a      	str	r2, [r3, #0]
     178:	2300      	movs	r3, #0
     17a:	60fb      	str	r3, [r7, #12]
     17c:	e011      	b.n	1a2 <func+0x52>
     17e:	68ba      	ldr	r2, [r7, #8]
     180:	68fb      	ldr	r3, [r7, #12]
     182:	4413      	add	r3, r2
     184:	781b      	ldrb	r3, [r3, #0]
     186:	b2db      	uxtb	r3, r3
     188:	4619      	mov	r1, r3
     18a:	4a0d      	ldr	r2, [pc, #52]	@ (1c0 <func+0x70>)
     18c:	68fb      	ldr	r3, [r7, #12]
     18e:	f842 1023 	str.w	r1, [r2, r3, lsl #2]
     192:	4b0a      	ldr	r3, [pc, #40]	@ (1bc <func+0x6c>)
     194:	681b      	ldr	r3, [r3, #0]
     196:	3301      	adds	r3, #1
     198:	4a08      	ldr	r2, [pc, #32]	@ (1bc <func+0x6c>)
     19a:	6013      	str	r3, [r2, #0]
     19c:	68fb      	ldr	r3, [r7, #12]
     19e:	3301      	adds	r3, #1
     1a0:	60fb      	str	r3, [r7, #12]
     1a2:	68fb      	ldr	r3, [r7, #12]
     1a4:	2b05      	cmp	r3, #5
     1a6:	d9ea      	bls.n	17e <func+0x2e>
     1a8:	4b04      	ldr	r3, [pc, #16]	@ (1bc <func+0x6c>)
     1aa:	681b      	ldr	r3, [r3, #0]
     1ac:	4618      	mov	r0, r3
     1ae:	3714      	adds	r7, #20
     1b0:	46bd      	mov	sp, r7
     1b2:	f85d 7b04 	ldr.w	r7, [sp], #4
     1b6:	4770      	bx	lr
     1b8:	000013a0 	andeq	r1, r0, r0, lsr #7
     1bc:	20000598 	mulcs	r0, r8, r5
     1c0:	20000008 	andcs	r0, r0, r8

000001c4 <memset>:
     1c4:	0783      	lsls	r3, r0, #30
     1c6:	b530      	push	{r4, r5, lr}
     1c8:	d047      	beq.n	25a <memset+0x96>
     1ca:	1e54      	subs	r4, r2, #1
     1cc:	2a00      	cmp	r2, #0
     1ce:	d03e      	beq.n	24e <memset+0x8a>
     1d0:	b2ca      	uxtb	r2, r1
     1d2:	4603      	mov	r3, r0
     1d4:	e001      	b.n	1da <memset+0x16>
     1d6:	3c01      	subs	r4, #1
     1d8:	d339      	bcc.n	24e <memset+0x8a>
     1da:	f803 2b01 	strb.w	r2, [r3], #1
     1de:	079d      	lsls	r5, r3, #30
     1e0:	d1f9      	bne.n	1d6 <memset+0x12>
     1e2:	2c03      	cmp	r4, #3
     1e4:	d92c      	bls.n	240 <memset+0x7c>
     1e6:	b2cd      	uxtb	r5, r1
     1e8:	eb05 2505 	add.w	r5, r5, r5, lsl #8
     1ec:	2c0f      	cmp	r4, #15
     1ee:	eb05 4505 	add.w	r5, r5, r5, lsl #16
     1f2:	d935      	bls.n	260 <memset+0x9c>
     1f4:	f1a4 0210 	sub.w	r2, r4, #16
     1f8:	f022 0c0f 	bic.w	ip, r2, #15
     1fc:	f103 0e10 	add.w	lr, r3, #16
     200:	44e6      	add	lr, ip
     202:	ea4f 1c12 	mov.w	ip, r2, lsr #4
     206:	461a      	mov	r2, r3
     208:	e9c2 5500 	strd	r5, r5, [r2]
     20c:	e9c2 5502 	strd	r5, r5, [r2, #8]
     210:	3210      	adds	r2, #16
     212:	4572      	cmp	r2, lr
     214:	d1f8      	bne.n	208 <memset+0x44>
     216:	f10c 0201 	add.w	r2, ip, #1
     21a:	f014 0f0c 	tst.w	r4, #12
     21e:	eb03 1202 	add.w	r2, r3, r2, lsl #4
     222:	f004 0c0f 	and.w	ip, r4, #15
     226:	d013      	beq.n	250 <memset+0x8c>
     228:	f1ac 0304 	sub.w	r3, ip, #4
     22c:	f023 0303 	bic.w	r3, r3, #3
     230:	3304      	adds	r3, #4
     232:	4413      	add	r3, r2
     234:	f842 5b04 	str.w	r5, [r2], #4
     238:	4293      	cmp	r3, r2
     23a:	d1fb      	bne.n	234 <memset+0x70>
     23c:	f00c 0403 	and.w	r4, ip, #3
     240:	b12c      	cbz	r4, 24e <memset+0x8a>
     242:	b2c9      	uxtb	r1, r1
     244:	441c      	add	r4, r3
     246:	f803 1b01 	strb.w	r1, [r3], #1
     24a:	42a3      	cmp	r3, r4
     24c:	d1fb      	bne.n	246 <memset+0x82>
     24e:	bd30      	pop	{r4, r5, pc}
     250:	4664      	mov	r4, ip
     252:	4613      	mov	r3, r2
     254:	2c00      	cmp	r4, #0
     256:	d1f4      	bne.n	242 <memset+0x7e>
     258:	e7f9      	b.n	24e <memset+0x8a>
     25a:	4603      	mov	r3, r0
     25c:	4614      	mov	r4, r2
     25e:	e7c0      	b.n	1e2 <memset+0x1e>
     260:	461a      	mov	r2, r3
     262:	46a4      	mov	ip, r4
     264:	e7e0      	b.n	228 <memset+0x64>
     266:	bf00      	nop

00000268 <malloc>:
     268:	4b02      	ldr	r3, [pc, #8]	@ (274 <malloc+0xc>)
     26a:	4601      	mov	r1, r0
     26c:	6818      	ldr	r0, [r3, #0]
     26e:	f000 b85b 	b.w	328 <_malloc_r>
     272:	bf00      	nop
     274:	20000030 	andcs	r0, r0, r0, lsr r0

00000278 <free>:
     278:	4b02      	ldr	r3, [pc, #8]	@ (284 <free+0xc>)
     27a:	4601      	mov	r1, r0
     27c:	6818      	ldr	r0, [r3, #0]
     27e:	f000 bb59 	b.w	934 <_free_r>
     282:	bf00      	nop
     284:	20000030 	andcs	r0, r0, r0, lsr r0

00000288 <__libc_init_array>:
     288:	b570      	push	{r4, r5, r6, lr}
     28a:	4b0f      	ldr	r3, [pc, #60]	@ (2c8 <__libc_init_array+0x40>)
     28c:	4d0f      	ldr	r5, [pc, #60]	@ (2cc <__libc_init_array+0x44>)
     28e:	42ab      	cmp	r3, r5
     290:	eba3 0605 	sub.w	r6, r3, r5
     294:	d007      	beq.n	2a6 <__libc_init_array+0x1e>
     296:	10b6      	asrs	r6, r6, #2
     298:	2400      	movs	r4, #0
     29a:	f855 3b04 	ldr.w	r3, [r5], #4
     29e:	3401      	adds	r4, #1
     2a0:	4798      	blx	r3
     2a2:	42a6      	cmp	r6, r4
     2a4:	d8f9      	bhi.n	29a <__libc_init_array+0x12>
     2a6:	f001 f859 	bl	135c <_init>
     2aa:	4d09      	ldr	r5, [pc, #36]	@ (2d0 <__libc_init_array+0x48>)
     2ac:	4b09      	ldr	r3, [pc, #36]	@ (2d4 <__libc_init_array+0x4c>)
     2ae:	1b5e      	subs	r6, r3, r5
     2b0:	42ab      	cmp	r3, r5
     2b2:	ea4f 06a6 	mov.w	r6, r6, asr #2
     2b6:	d006      	beq.n	2c6 <__libc_init_array+0x3e>
     2b8:	2400      	movs	r4, #0
     2ba:	f855 3b04 	ldr.w	r3, [r5], #4
     2be:	3401      	adds	r4, #1
     2c0:	4798      	blx	r3
     2c2:	42a6      	cmp	r6, r4
     2c4:	d8f9      	bhi.n	2ba <__libc_init_array+0x32>
     2c6:	bd70      	pop	{r4, r5, r6, pc}
	...
     2d0:	00001354 	andeq	r1, r0, r4, asr r3
     2d4:	0000135c 	andeq	r1, r0, ip, asr r3

000002d8 <exit>:
     2d8:	b508      	push	{r3, lr}
     2da:	2100      	movs	r1, #0
     2dc:	4604      	mov	r4, r0
     2de:	f000 fc25 	bl	b2c <__call_exitprocs>
     2e2:	4b03      	ldr	r3, [pc, #12]	@ (2f0 <exit+0x18>)
     2e4:	681b      	ldr	r3, [r3, #0]
     2e6:	b103      	cbz	r3, 2ea <exit+0x12>
     2e8:	4798      	blx	r3
     2ea:	4620      	mov	r0, r4
     2ec:	f001 f826 	bl	133c <_exit>
     2f0:	2000089c 	mulcs	r0, ip, r8

000002f4 <atexit>:
     2f4:	2300      	movs	r3, #0
     2f6:	4601      	mov	r1, r0
     2f8:	461a      	mov	r2, r3
     2fa:	4618      	mov	r0, r3
     2fc:	f000 bc7c 	b.w	bf8 <__register_exitproc>

00000300 <__libc_fini_array>:
     300:	b538      	push	{r3, r4, r5, lr}
     302:	4d07      	ldr	r5, [pc, #28]	@ (320 <__libc_fini_array+0x20>)
     304:	4c07      	ldr	r4, [pc, #28]	@ (324 <__libc_fini_array+0x24>)
     306:	1b2c      	subs	r4, r5, r4
     308:	10a4      	asrs	r4, r4, #2
     30a:	d005      	beq.n	318 <__libc_fini_array+0x18>
     30c:	3c01      	subs	r4, #1
     30e:	f855 3d04 	ldr.w	r3, [r5, #-4]!
     312:	4798      	blx	r3
     314:	2c00      	cmp	r4, #0
     316:	d1f9      	bne.n	30c <__libc_fini_array+0xc>
     318:	e8bd 4038 	ldmia.w	sp!, {r3, r4, r5, lr}
     31c:	f001 b824 	b.w	1368 <_fini>
	...

00000328 <_malloc_r>:
     328:	e92d 4ff0 	stmdb	sp!, {r4, r5, r6, r7, r8, r9, sl, fp, lr}
     32c:	f101 050b 	add.w	r5, r1, #11
     330:	2d16      	cmp	r5, #22
     332:	b083      	sub	sp, #12
     334:	4606      	mov	r6, r0
     336:	d823      	bhi.n	380 <_malloc_r+0x58>
     338:	2910      	cmp	r1, #16
     33a:	f200 80af 	bhi.w	49c <_malloc_r+0x174>
     33e:	f000 fc8d 	bl	c5c <__malloc_lock>
     342:	2510      	movs	r5, #16
     344:	2318      	movs	r3, #24
     346:	2002      	movs	r0, #2
     348:	4fc0      	ldr	r7, [pc, #768]	@ (64c <_malloc_r+0x324>)
     34a:	443b      	add	r3, r7
     34c:	f1a3 0208 	sub.w	r2, r3, #8
     350:	685c      	ldr	r4, [r3, #4]
     352:	4294      	cmp	r4, r2
     354:	f000 8124 	beq.w	5a0 <_malloc_r+0x278>
     358:	6863      	ldr	r3, [r4, #4]
     35a:	68e2      	ldr	r2, [r4, #12]
     35c:	68a1      	ldr	r1, [r4, #8]
     35e:	f023 0303 	bic.w	r3, r3, #3
     362:	60ca      	str	r2, [r1, #12]
     364:	4423      	add	r3, r4
     366:	4630      	mov	r0, r6
     368:	6091      	str	r1, [r2, #8]
     36a:	685a      	ldr	r2, [r3, #4]
     36c:	f042 0201 	orr.w	r2, r2, #1
     370:	605a      	str	r2, [r3, #4]
     372:	f000 fc75 	bl	c60 <__malloc_unlock>
     376:	3408      	adds	r4, #8
     378:	4620      	mov	r0, r4
     37a:	b003      	add	sp, #12
     37c:	e8bd 8ff0 	ldmia.w	sp!, {r4, r5, r6, r7, r8, r9, sl, fp, pc}
     380:	f035 0507 	bics.w	r5, r5, #7
     384:	f100 808a 	bmi.w	49c <_malloc_r+0x174>
     388:	42a9      	cmp	r1, r5
     38a:	f200 8087 	bhi.w	49c <_malloc_r+0x174>
     38e:	f000 fc65 	bl	c5c <__malloc_lock>
     392:	f5b5 7ffc 	cmp.w	r5, #504	@ 0x1f8
     396:	f0c0 816b 	bcc.w	670 <_malloc_r+0x348>
     39a:	0a6b      	lsrs	r3, r5, #9
     39c:	f000 8082 	beq.w	4a4 <_malloc_r+0x17c>
     3a0:	2b04      	cmp	r3, #4
     3a2:	f200 8123 	bhi.w	5ec <_malloc_r+0x2c4>
     3a6:	09ab      	lsrs	r3, r5, #6
     3a8:	f103 0039 	add.w	r0, r3, #57	@ 0x39
     3ac:	f103 0e38 	add.w	lr, r3, #56	@ 0x38
     3b0:	00c3      	lsls	r3, r0, #3
     3b2:	4fa6      	ldr	r7, [pc, #664]	@ (64c <_malloc_r+0x324>)
     3b4:	443b      	add	r3, r7
     3b6:	f1a3 0c08 	sub.w	ip, r3, #8
     3ba:	685c      	ldr	r4, [r3, #4]
     3bc:	45a4      	cmp	ip, r4
     3be:	d107      	bne.n	3d0 <_malloc_r+0xa8>
     3c0:	e00d      	b.n	3de <_malloc_r+0xb6>
     3c2:	2a00      	cmp	r2, #0
     3c4:	68e1      	ldr	r1, [r4, #12]
     3c6:	f280 80e5 	bge.w	594 <_malloc_r+0x26c>
     3ca:	458c      	cmp	ip, r1
     3cc:	d007      	beq.n	3de <_malloc_r+0xb6>
     3ce:	460c      	mov	r4, r1
     3d0:	6863      	ldr	r3, [r4, #4]
     3d2:	f023 0303 	bic.w	r3, r3, #3
     3d6:	1b5a      	subs	r2, r3, r5
     3d8:	2a0f      	cmp	r2, #15
     3da:	ddf2      	ble.n	3c2 <_malloc_r+0x9a>
     3dc:	4670      	mov	r0, lr
     3de:	f8df 8270 	ldr.w	r8, [pc, #624]	@ 650 <_malloc_r+0x328>
     3e2:	693c      	ldr	r4, [r7, #16]
     3e4:	4544      	cmp	r4, r8
     3e6:	f000 80c2 	beq.w	56e <_malloc_r+0x246>
     3ea:	6863      	ldr	r3, [r4, #4]
     3ec:	f023 0c03 	bic.w	ip, r3, #3
     3f0:	ebac 0305 	sub.w	r3, ip, r5
     3f4:	2b0f      	cmp	r3, #15
     3f6:	f300 813f 	bgt.w	678 <_malloc_r+0x350>
     3fa:	2b00      	cmp	r3, #0
     3fc:	e9c7 8804 	strd	r8, r8, [r7, #16]
     400:	f280 812a 	bge.w	658 <_malloc_r+0x330>
     404:	f5bc 7f00 	cmp.w	ip, #512	@ 0x200
     408:	f8d7 e004 	ldr.w	lr, [r7, #4]
     40c:	f080 80ce 	bcs.w	5ac <_malloc_r+0x284>
     410:	ea4f 01dc 	mov.w	r1, ip, lsr #3
     414:	3101      	adds	r1, #1
     416:	ea4f 1c5c 	mov.w	ip, ip, lsr #5
     41a:	2301      	movs	r3, #1
     41c:	fa03 f30c 	lsl.w	r3, r3, ip
     420:	f857 2031 	ldr.w	r2, [r7, r1, lsl #3]
     424:	60a2      	str	r2, [r4, #8]
     426:	ea4e 0e03 	orr.w	lr, lr, r3
     42a:	eb07 03c1 	add.w	r3, r7, r1, lsl #3
     42e:	3b08      	subs	r3, #8
     430:	60e3      	str	r3, [r4, #12]
     432:	f8c7 e004 	str.w	lr, [r7, #4]
     436:	f847 4031 	str.w	r4, [r7, r1, lsl #3]
     43a:	60d4      	str	r4, [r2, #12]
     43c:	1083      	asrs	r3, r0, #2
     43e:	f04f 0c01 	mov.w	ip, #1
     442:	fa0c fc03 	lsl.w	ip, ip, r3
     446:	45f4      	cmp	ip, lr
     448:	d832      	bhi.n	4b0 <_malloc_r+0x188>
     44a:	ea1c 0f0e 	tst.w	ip, lr
     44e:	d108      	bne.n	462 <_malloc_r+0x13a>
     450:	f020 0003 	bic.w	r0, r0, #3
     454:	ea4f 0c4c 	mov.w	ip, ip, lsl #1
     458:	ea1c 0f0e 	tst.w	ip, lr
     45c:	f100 0004 	add.w	r0, r0, #4
     460:	d0f8      	beq.n	454 <_malloc_r+0x12c>
     462:	eb07 0ac0 	add.w	sl, r7, r0, lsl #3
     466:	46d6      	mov	lr, sl
     468:	4681      	mov	r9, r0
     46a:	f8de 300c 	ldr.w	r3, [lr, #12]
     46e:	e00b      	b.n	488 <_malloc_r+0x160>
     470:	6859      	ldr	r1, [r3, #4]
     472:	f021 0103 	bic.w	r1, r1, #3
     476:	1b4a      	subs	r2, r1, r5
     478:	2a0f      	cmp	r2, #15
     47a:	461c      	mov	r4, r3
     47c:	68db      	ldr	r3, [r3, #12]
     47e:	f300 80c1 	bgt.w	604 <_malloc_r+0x2dc>
     482:	2a00      	cmp	r2, #0
     484:	f280 80d5 	bge.w	632 <_malloc_r+0x30a>
     488:	459e      	cmp	lr, r3
     48a:	d1f1      	bne.n	470 <_malloc_r+0x148>
     48c:	f109 0901 	add.w	r9, r9, #1
     490:	f019 0f03 	tst.w	r9, #3
     494:	f10e 0e08 	add.w	lr, lr, #8
     498:	d1e7      	bne.n	46a <_malloc_r+0x142>
     49a:	e116      	b.n	6ca <_malloc_r+0x3a2>
     49c:	230c      	movs	r3, #12
     49e:	6033      	str	r3, [r6, #0]
     4a0:	2400      	movs	r4, #0
     4a2:	e769      	b.n	378 <_malloc_r+0x50>
     4a4:	f44f 7300 	mov.w	r3, #512	@ 0x200
     4a8:	2040      	movs	r0, #64	@ 0x40
     4aa:	f04f 0e3f 	mov.w	lr, #63	@ 0x3f
     4ae:	e780      	b.n	3b2 <_malloc_r+0x8a>
     4b0:	68bc      	ldr	r4, [r7, #8]
     4b2:	6863      	ldr	r3, [r4, #4]
     4b4:	f023 0903 	bic.w	r9, r3, #3
     4b8:	45a9      	cmp	r9, r5
     4ba:	d303      	bcc.n	4c4 <_malloc_r+0x19c>
     4bc:	eba9 0305 	sub.w	r3, r9, r5
     4c0:	2b0f      	cmp	r3, #15
     4c2:	dc57      	bgt.n	574 <_malloc_r+0x24c>
     4c4:	f8df b18c 	ldr.w	fp, [pc, #396]	@ 654 <_malloc_r+0x32c>
     4c8:	f8db 2000 	ldr.w	r2, [fp]
     4cc:	eb04 0309 	add.w	r3, r4, r9
     4d0:	3210      	adds	r2, #16
     4d2:	2008      	movs	r0, #8
     4d4:	eb02 0805 	add.w	r8, r2, r5
     4d8:	9300      	str	r3, [sp, #0]
     4da:	f000 fb7f 	bl	bdc <sysconf>
     4de:	f8d7 1408 	ldr.w	r1, [r7, #1032]	@ 0x408
     4e2:	3101      	adds	r1, #1
     4e4:	4602      	mov	r2, r0
     4e6:	d005      	beq.n	4f4 <_malloc_r+0x1cc>
     4e8:	f108 38ff 	add.w	r8, r8, #4294967295	@ 0xffffffff
     4ec:	4480      	add	r8, r0
     4ee:	4241      	negs	r1, r0
     4f0:	ea01 0808 	and.w	r8, r1, r8
     4f4:	4641      	mov	r1, r8
     4f6:	4630      	mov	r0, r6
     4f8:	9201      	str	r2, [sp, #4]
     4fa:	f000 fcc5 	bl	e88 <_sbrk_r>
     4fe:	f1b0 3fff 	cmp.w	r0, #4294967295	@ 0xffffffff
     502:	9a01      	ldr	r2, [sp, #4]
     504:	4682      	mov	sl, r0
     506:	f000 80d2 	beq.w	6ae <_malloc_r+0x386>
     50a:	9b00      	ldr	r3, [sp, #0]
     50c:	4283      	cmp	r3, r0
     50e:	f200 80cc 	bhi.w	6aa <_malloc_r+0x382>
     512:	f8db 1004 	ldr.w	r1, [fp, #4]
     516:	4441      	add	r1, r8
     518:	f8cb 1004 	str.w	r1, [fp, #4]
     51c:	4608      	mov	r0, r1
     51e:	f102 3cff 	add.w	ip, r2, #4294967295	@ 0xffffffff
     522:	f040 80f4 	bne.w	70e <_malloc_r+0x3e6>
     526:	ea1a 0f0c 	tst.w	sl, ip
     52a:	f040 80f0 	bne.w	70e <_malloc_r+0x3e6>
     52e:	f8d7 a008 	ldr.w	sl, [r7, #8]
     532:	44c8      	add	r8, r9
     534:	f048 0001 	orr.w	r0, r8, #1
     538:	f8ca 0004 	str.w	r0, [sl, #4]
     53c:	f8db 202c 	ldr.w	r2, [fp, #44]	@ 0x2c
     540:	428a      	cmp	r2, r1
     542:	f8db 2030 	ldr.w	r2, [fp, #48]	@ 0x30
     546:	bf38      	it	cc
     548:	f8cb 102c 	strcc.w	r1, [fp, #44]	@ 0x2c
     54c:	428a      	cmp	r2, r1
     54e:	bf38      	it	cc
     550:	f8cb 1030 	strcc.w	r1, [fp, #48]	@ 0x30
     554:	4654      	mov	r4, sl
     556:	f020 0803 	bic.w	r8, r0, #3
     55a:	45a8      	cmp	r8, r5
     55c:	eba8 0305 	sub.w	r3, r8, r5
     560:	d301      	bcc.n	566 <_malloc_r+0x23e>
     562:	2b0f      	cmp	r3, #15
     564:	dc06      	bgt.n	574 <_malloc_r+0x24c>
     566:	4630      	mov	r0, r6
     568:	f000 fb7a 	bl	c60 <__malloc_unlock>
     56c:	e798      	b.n	4a0 <_malloc_r+0x178>
     56e:	f8d7 e004 	ldr.w	lr, [r7, #4]
     572:	e763      	b.n	43c <_malloc_r+0x114>
     574:	1962      	adds	r2, r4, r5
     576:	f043 0301 	orr.w	r3, r3, #1
     57a:	f045 0501 	orr.w	r5, r5, #1
     57e:	6065      	str	r5, [r4, #4]
     580:	4630      	mov	r0, r6
     582:	60ba      	str	r2, [r7, #8]
     584:	6053      	str	r3, [r2, #4]
     586:	f000 fb6b 	bl	c60 <__malloc_unlock>
     58a:	3408      	adds	r4, #8
     58c:	4620      	mov	r0, r4
     58e:	b003      	add	sp, #12
     590:	e8bd 8ff0 	ldmia.w	sp!, {r4, r5, r6, r7, r8, r9, sl, fp, pc}
     594:	68a2      	ldr	r2, [r4, #8]
     596:	4423      	add	r3, r4
     598:	60d1      	str	r1, [r2, #12]
     59a:	4630      	mov	r0, r6
     59c:	608a      	str	r2, [r1, #8]
     59e:	e6e4      	b.n	36a <_malloc_r+0x42>
     5a0:	68dc      	ldr	r4, [r3, #12]
     5a2:	42a3      	cmp	r3, r4
     5a4:	f47f aed8 	bne.w	358 <_malloc_r+0x30>
     5a8:	3002      	adds	r0, #2
     5aa:	e718      	b.n	3de <_malloc_r+0xb6>
     5ac:	f5bc 6f20 	cmp.w	ip, #2560	@ 0xa00
     5b0:	ea4f 225c 	mov.w	r2, ip, lsr #9
     5b4:	d372      	bcc.n	69c <_malloc_r+0x374>
     5b6:	2a14      	cmp	r2, #20
     5b8:	f200 8108 	bhi.w	7cc <_malloc_r+0x4a4>
     5bc:	f102 035c 	add.w	r3, r2, #92	@ 0x5c
     5c0:	00db      	lsls	r3, r3, #3
     5c2:	325b      	adds	r2, #91	@ 0x5b
     5c4:	18f9      	adds	r1, r7, r3
     5c6:	58fb      	ldr	r3, [r7, r3]
     5c8:	3908      	subs	r1, #8
     5ca:	4299      	cmp	r1, r3
     5cc:	d103      	bne.n	5d6 <_malloc_r+0x2ae>
     5ce:	e0e4      	b.n	79a <_malloc_r+0x472>
     5d0:	689b      	ldr	r3, [r3, #8]
     5d2:	4299      	cmp	r1, r3
     5d4:	d004      	beq.n	5e0 <_malloc_r+0x2b8>
     5d6:	685a      	ldr	r2, [r3, #4]
     5d8:	f022 0203 	bic.w	r2, r2, #3
     5dc:	4562      	cmp	r2, ip
     5de:	d8f7      	bhi.n	5d0 <_malloc_r+0x2a8>
     5e0:	68d9      	ldr	r1, [r3, #12]
     5e2:	e9c4 3102 	strd	r3, r1, [r4, #8]
     5e6:	608c      	str	r4, [r1, #8]
     5e8:	60dc      	str	r4, [r3, #12]
     5ea:	e727      	b.n	43c <_malloc_r+0x114>
     5ec:	2b14      	cmp	r3, #20
     5ee:	d961      	bls.n	6b4 <_malloc_r+0x38c>
     5f0:	2b54      	cmp	r3, #84	@ 0x54
     5f2:	f200 80f4 	bhi.w	7de <_malloc_r+0x4b6>
     5f6:	0b2b      	lsrs	r3, r5, #12
     5f8:	f103 006f 	add.w	r0, r3, #111	@ 0x6f
     5fc:	f103 0e6e 	add.w	lr, r3, #110	@ 0x6e
     600:	00c3      	lsls	r3, r0, #3
     602:	e6d6      	b.n	3b2 <_malloc_r+0x8a>
     604:	f8d4 c008 	ldr.w	ip, [r4, #8]
     608:	4630      	mov	r0, r6
     60a:	1966      	adds	r6, r4, r5
     60c:	f045 0501 	orr.w	r5, r5, #1
     610:	6065      	str	r5, [r4, #4]
     612:	f8cc 300c 	str.w	r3, [ip, #12]
     616:	f8c3 c008 	str.w	ip, [r3, #8]
     61a:	f042 0301 	orr.w	r3, r2, #1
     61e:	e9c7 6604 	strd	r6, r6, [r7, #16]
     622:	e9c6 8802 	strd	r8, r8, [r6, #8]
     626:	6073      	str	r3, [r6, #4]
     628:	5062      	str	r2, [r4, r1]
     62a:	f000 fb19 	bl	c60 <__malloc_unlock>
     62e:	3408      	adds	r4, #8
     630:	e6a2      	b.n	378 <_malloc_r+0x50>
     632:	4421      	add	r1, r4
     634:	4630      	mov	r0, r6
     636:	684a      	ldr	r2, [r1, #4]
     638:	f042 0201 	orr.w	r2, r2, #1
     63c:	604a      	str	r2, [r1, #4]
     63e:	f854 2f08 	ldr.w	r2, [r4, #8]!
     642:	60d3      	str	r3, [r2, #12]
     644:	609a      	str	r2, [r3, #8]
     646:	f000 fb0b 	bl	c60 <__malloc_unlock>
     64a:	e695      	b.n	378 <_malloc_r+0x50>
     64c:	20000158 	andcs	r0, r0, r8, asr r1
     650:	20000160 	andcs	r0, r0, r0, ror #2
     654:	2000059c 	mulcs	r0, ip, r5
     658:	44a4      	add	ip, r4
     65a:	4630      	mov	r0, r6
     65c:	f8dc 3004 	ldr.w	r3, [ip, #4]
     660:	f043 0301 	orr.w	r3, r3, #1
     664:	f8cc 3004 	str.w	r3, [ip, #4]
     668:	f000 fafa 	bl	c60 <__malloc_unlock>
     66c:	3408      	adds	r4, #8
     66e:	e683      	b.n	378 <_malloc_r+0x50>
     670:	08e8      	lsrs	r0, r5, #3
     672:	f105 0308 	add.w	r3, r5, #8
     676:	e667      	b.n	348 <_malloc_r+0x20>
     678:	1962      	adds	r2, r4, r5
     67a:	f043 0101 	orr.w	r1, r3, #1
     67e:	f045 0501 	orr.w	r5, r5, #1
     682:	6065      	str	r5, [r4, #4]
     684:	4630      	mov	r0, r6
     686:	e9c7 2204 	strd	r2, r2, [r7, #16]
     68a:	e9c2 8802 	strd	r8, r8, [r2, #8]
     68e:	6051      	str	r1, [r2, #4]
     690:	f844 300c 	str.w	r3, [r4, ip]
     694:	f000 fae4 	bl	c60 <__malloc_unlock>
     698:	3408      	adds	r4, #8
     69a:	e66d      	b.n	378 <_malloc_r+0x50>
     69c:	ea4f 129c 	mov.w	r2, ip, lsr #6
     6a0:	f102 0339 	add.w	r3, r2, #57	@ 0x39
     6a4:	00db      	lsls	r3, r3, #3
     6a6:	3238      	adds	r2, #56	@ 0x38
     6a8:	e78c      	b.n	5c4 <_malloc_r+0x29c>
     6aa:	42bc      	cmp	r4, r7
     6ac:	d028      	beq.n	700 <_malloc_r+0x3d8>
     6ae:	68bc      	ldr	r4, [r7, #8]
     6b0:	6860      	ldr	r0, [r4, #4]
     6b2:	e750      	b.n	556 <_malloc_r+0x22e>
     6b4:	f103 005c 	add.w	r0, r3, #92	@ 0x5c
     6b8:	f103 0e5b 	add.w	lr, r3, #91	@ 0x5b
     6bc:	00c3      	lsls	r3, r0, #3
     6be:	e678      	b.n	3b2 <_malloc_r+0x8a>
     6c0:	f85a 3908 	ldr.w	r3, [sl], #-8
     6c4:	4553      	cmp	r3, sl
     6c6:	f040 80d7 	bne.w	878 <_malloc_r+0x550>
     6ca:	f010 0f03 	tst.w	r0, #3
     6ce:	f100 30ff 	add.w	r0, r0, #4294967295	@ 0xffffffff
     6d2:	d1f5      	bne.n	6c0 <_malloc_r+0x398>
     6d4:	687b      	ldr	r3, [r7, #4]
     6d6:	ea23 030c 	bic.w	r3, r3, ip
     6da:	607b      	str	r3, [r7, #4]
     6dc:	ea4f 0c4c 	mov.w	ip, ip, lsl #1
     6e0:	459c      	cmp	ip, r3
     6e2:	f63f aee5 	bhi.w	4b0 <_malloc_r+0x188>
     6e6:	f1bc 0f00 	cmp.w	ip, #0
     6ea:	d104      	bne.n	6f6 <_malloc_r+0x3ce>
     6ec:	e6e0      	b.n	4b0 <_malloc_r+0x188>
     6ee:	ea4f 0c4c 	mov.w	ip, ip, lsl #1
     6f2:	f109 0904 	add.w	r9, r9, #4
     6f6:	ea1c 0f03 	tst.w	ip, r3
     6fa:	d0f8      	beq.n	6ee <_malloc_r+0x3c6>
     6fc:	4648      	mov	r0, r9
     6fe:	e6b0      	b.n	462 <_malloc_r+0x13a>
     700:	f8db 0004 	ldr.w	r0, [fp, #4]
     704:	4440      	add	r0, r8
     706:	f8cb 0004 	str.w	r0, [fp, #4]
     70a:	f102 3cff 	add.w	ip, r2, #4294967295	@ 0xffffffff
     70e:	f8d7 1408 	ldr.w	r1, [r7, #1032]	@ 0x408
     712:	3101      	adds	r1, #1
     714:	d06d      	beq.n	7f2 <_malloc_r+0x4ca>
     716:	9b00      	ldr	r3, [sp, #0]
     718:	ebaa 0303 	sub.w	r3, sl, r3
     71c:	4418      	add	r0, r3
     71e:	f8cb 0004 	str.w	r0, [fp, #4]
     722:	f01a 0307 	ands.w	r3, sl, #7
     726:	9300      	str	r3, [sp, #0]
     728:	d041      	beq.n	7ae <_malloc_r+0x486>
     72a:	f1c3 0108 	rsb	r1, r3, #8
     72e:	448a      	add	sl, r1
     730:	44d0      	add	r8, sl
     732:	440a      	add	r2, r1
     734:	ea08 010c 	and.w	r1, r8, ip
     738:	1a52      	subs	r2, r2, r1
     73a:	ea02 010c 	and.w	r1, r2, ip
     73e:	4630      	mov	r0, r6
     740:	9101      	str	r1, [sp, #4]
     742:	f000 fba1 	bl	e88 <_sbrk_r>
     746:	1c42      	adds	r2, r0, #1
     748:	d06f      	beq.n	82a <_malloc_r+0x502>
     74a:	9901      	ldr	r1, [sp, #4]
     74c:	eba0 000a 	sub.w	r0, r0, sl
     750:	eb00 0801 	add.w	r8, r0, r1
     754:	f8db 2004 	ldr.w	r2, [fp, #4]
     758:	f8c7 a008 	str.w	sl, [r7, #8]
     75c:	f048 0001 	orr.w	r0, r8, #1
     760:	4411      	add	r1, r2
     762:	42bc      	cmp	r4, r7
     764:	f8ca 0004 	str.w	r0, [sl, #4]
     768:	f8cb 1004 	str.w	r1, [fp, #4]
     76c:	f43f aee6 	beq.w	53c <_malloc_r+0x214>
     770:	f1b9 0f0f 	cmp.w	r9, #15
     774:	d940      	bls.n	7f8 <_malloc_r+0x4d0>
     776:	6862      	ldr	r2, [r4, #4]
     778:	f1a9 000c 	sub.w	r0, r9, #12
     77c:	f020 0007 	bic.w	r0, r0, #7
     780:	f002 0201 	and.w	r2, r2, #1
     784:	4302      	orrs	r2, r0
     786:	6062      	str	r2, [r4, #4]
     788:	2305      	movs	r3, #5
     78a:	1822      	adds	r2, r4, r0
     78c:	280f      	cmp	r0, #15
     78e:	e9c2 3301 	strd	r3, r3, [r2, #4]
     792:	d852      	bhi.n	83a <_malloc_r+0x512>
     794:	f8da 0004 	ldr.w	r0, [sl, #4]
     798:	e6d0      	b.n	53c <_malloc_r+0x214>
     79a:	1092      	asrs	r2, r2, #2
     79c:	f04f 0c01 	mov.w	ip, #1
     7a0:	fa0c f202 	lsl.w	r2, ip, r2
     7a4:	ea4e 0e02 	orr.w	lr, lr, r2
     7a8:	f8c7 e004 	str.w	lr, [r7, #4]
     7ac:	e719      	b.n	5e2 <_malloc_r+0x2ba>
     7ae:	eb0a 0108 	add.w	r1, sl, r8
     7b2:	ea01 010c 	and.w	r1, r1, ip
     7b6:	1a52      	subs	r2, r2, r1
     7b8:	ea02 010c 	and.w	r1, r2, ip
     7bc:	4630      	mov	r0, r6
     7be:	9101      	str	r1, [sp, #4]
     7c0:	f000 fb62 	bl	e88 <_sbrk_r>
     7c4:	1c43      	adds	r3, r0, #1
     7c6:	d1c0      	bne.n	74a <_malloc_r+0x422>
     7c8:	9900      	ldr	r1, [sp, #0]
     7ca:	e7c3      	b.n	754 <_malloc_r+0x42c>
     7cc:	2a54      	cmp	r2, #84	@ 0x54
     7ce:	d817      	bhi.n	800 <_malloc_r+0x4d8>
     7d0:	ea4f 321c 	mov.w	r2, ip, lsr #12
     7d4:	f102 036f 	add.w	r3, r2, #111	@ 0x6f
     7d8:	00db      	lsls	r3, r3, #3
     7da:	326e      	adds	r2, #110	@ 0x6e
     7dc:	e6f2      	b.n	5c4 <_malloc_r+0x29c>
     7de:	f5b3 7faa 	cmp.w	r3, #340	@ 0x154
     7e2:	d817      	bhi.n	814 <_malloc_r+0x4ec>
     7e4:	0beb      	lsrs	r3, r5, #15
     7e6:	f103 0078 	add.w	r0, r3, #120	@ 0x78
     7ea:	f103 0e77 	add.w	lr, r3, #119	@ 0x77
     7ee:	00c3      	lsls	r3, r0, #3
     7f0:	e5df      	b.n	3b2 <_malloc_r+0x8a>
     7f2:	f8c7 a408 	str.w	sl, [r7, #1032]	@ 0x408
     7f6:	e794      	b.n	722 <_malloc_r+0x3fa>
     7f8:	2301      	movs	r3, #1
     7fa:	f8ca 3004 	str.w	r3, [sl, #4]
     7fe:	e6b2      	b.n	566 <_malloc_r+0x23e>
     800:	f5b2 7faa 	cmp.w	r2, #340	@ 0x154
     804:	d823      	bhi.n	84e <_malloc_r+0x526>
     806:	ea4f 32dc 	mov.w	r2, ip, lsr #15
     80a:	f102 0378 	add.w	r3, r2, #120	@ 0x78
     80e:	00db      	lsls	r3, r3, #3
     810:	3277      	adds	r2, #119	@ 0x77
     812:	e6d7      	b.n	5c4 <_malloc_r+0x29c>
     814:	f240 5254 	movw	r2, #1364	@ 0x554
     818:	4293      	cmp	r3, r2
     81a:	d823      	bhi.n	864 <_malloc_r+0x53c>
     81c:	0cab      	lsrs	r3, r5, #18
     81e:	f103 007d 	add.w	r0, r3, #125	@ 0x7d
     822:	f103 0e7c 	add.w	lr, r3, #124	@ 0x7c
     826:	00c3      	lsls	r3, r0, #3
     828:	e5c3      	b.n	3b2 <_malloc_r+0x8a>
     82a:	9b00      	ldr	r3, [sp, #0]
     82c:	f1a3 0208 	sub.w	r2, r3, #8
     830:	4490      	add	r8, r2
     832:	eba8 080a 	sub.w	r8, r8, sl
     836:	2100      	movs	r1, #0
     838:	e78c      	b.n	754 <_malloc_r+0x42c>
     83a:	f104 0108 	add.w	r1, r4, #8
     83e:	4630      	mov	r0, r6
     840:	f000 f878 	bl	934 <_free_r>
     844:	f8db 1004 	ldr.w	r1, [fp, #4]
     848:	f8d7 a008 	ldr.w	sl, [r7, #8]
     84c:	e7a2      	b.n	794 <_malloc_r+0x46c>
     84e:	f240 5354 	movw	r3, #1364	@ 0x554
     852:	429a      	cmp	r2, r3
     854:	d80c      	bhi.n	870 <_malloc_r+0x548>
     856:	ea4f 429c 	mov.w	r2, ip, lsr #18
     85a:	f102 037d 	add.w	r3, r2, #125	@ 0x7d
     85e:	00db      	lsls	r3, r3, #3
     860:	327c      	adds	r2, #124	@ 0x7c
     862:	e6af      	b.n	5c4 <_malloc_r+0x29c>
     864:	f44f 737e 	mov.w	r3, #1016	@ 0x3f8
     868:	207f      	movs	r0, #127	@ 0x7f
     86a:	f04f 0e7e 	mov.w	lr, #126	@ 0x7e
     86e:	e5a0      	b.n	3b2 <_malloc_r+0x8a>
     870:	f44f 737e 	mov.w	r3, #1016	@ 0x3f8
     874:	227e      	movs	r2, #126	@ 0x7e
     876:	e6a5      	b.n	5c4 <_malloc_r+0x29c>
     878:	687b      	ldr	r3, [r7, #4]
     87a:	e72f      	b.n	6dc <_malloc_r+0x3b4>

0000087c <_malloc_trim_r>:
     87c:	e92d 43f8 	stmdb	sp!, {r3, r4, r5, r6, r7, r8, r9, lr}
     880:	4606      	mov	r6, r0
     882:	2008      	movs	r0, #8
     884:	4689      	mov	r9, r1
     886:	f000 f9a9 	bl	bdc <sysconf>
     88a:	f8df 80a4 	ldr.w	r8, [pc, #164]	@ 930 <_malloc_trim_r+0xb4>
     88e:	4605      	mov	r5, r0
     890:	4630      	mov	r0, r6
     892:	f000 f9e3 	bl	c5c <__malloc_lock>
     896:	f8d8 3008 	ldr.w	r3, [r8, #8]
     89a:	685f      	ldr	r7, [r3, #4]
     89c:	f027 0703 	bic.w	r7, r7, #3
     8a0:	f1a7 0411 	sub.w	r4, r7, #17
     8a4:	eba4 0409 	sub.w	r4, r4, r9
     8a8:	442c      	add	r4, r5
     8aa:	fbb4 f4f5 	udiv	r4, r4, r5
     8ae:	3c01      	subs	r4, #1
     8b0:	fb05 f404 	mul.w	r4, r5, r4
     8b4:	42a5      	cmp	r5, r4
     8b6:	dc08      	bgt.n	8ca <_malloc_trim_r+0x4e>
     8b8:	2100      	movs	r1, #0
     8ba:	4630      	mov	r0, r6
     8bc:	f000 fae4 	bl	e88 <_sbrk_r>
     8c0:	f8d8 3008 	ldr.w	r3, [r8, #8]
     8c4:	443b      	add	r3, r7
     8c6:	4298      	cmp	r0, r3
     8c8:	d005      	beq.n	8d6 <_malloc_trim_r+0x5a>
     8ca:	4630      	mov	r0, r6
     8cc:	f000 f9c8 	bl	c60 <__malloc_unlock>
     8d0:	2000      	movs	r0, #0
     8d2:	e8bd 83f8 	ldmia.w	sp!, {r3, r4, r5, r6, r7, r8, r9, pc}
     8d6:	4261      	negs	r1, r4
     8d8:	4630      	mov	r0, r6
     8da:	f000 fad5 	bl	e88 <_sbrk_r>
     8de:	3001      	adds	r0, #1
     8e0:	d00f      	beq.n	902 <_malloc_trim_r+0x86>
     8e2:	4a11      	ldr	r2, [pc, #68]	@ (928 <_malloc_trim_r+0xac>)
     8e4:	f8d8 3008 	ldr.w	r3, [r8, #8]
     8e8:	1b3f      	subs	r7, r7, r4
     8ea:	f047 0701 	orr.w	r7, r7, #1
     8ee:	605f      	str	r7, [r3, #4]
     8f0:	6813      	ldr	r3, [r2, #0]
     8f2:	4630      	mov	r0, r6
     8f4:	1b1b      	subs	r3, r3, r4
     8f6:	6013      	str	r3, [r2, #0]
     8f8:	f000 f9b2 	bl	c60 <__malloc_unlock>
     8fc:	2001      	movs	r0, #1
     8fe:	e8bd 83f8 	ldmia.w	sp!, {r3, r4, r5, r6, r7, r8, r9, pc}
     902:	2100      	movs	r1, #0
     904:	4630      	mov	r0, r6
     906:	f000 fabf 	bl	e88 <_sbrk_r>
     90a:	f8d8 2008 	ldr.w	r2, [r8, #8]
     90e:	1a83      	subs	r3, r0, r2
     910:	2b0f      	cmp	r3, #15
     912:	ddda      	ble.n	8ca <_malloc_trim_r+0x4e>
     914:	f043 0301 	orr.w	r3, r3, #1
     918:	6053      	str	r3, [r2, #4]
     91a:	4b04      	ldr	r3, [pc, #16]	@ (92c <_malloc_trim_r+0xb0>)
     91c:	4902      	ldr	r1, [pc, #8]	@ (928 <_malloc_trim_r+0xac>)
     91e:	681b      	ldr	r3, [r3, #0]
     920:	1ac0      	subs	r0, r0, r3
     922:	6008      	str	r0, [r1, #0]
     924:	e7d1      	b.n	8ca <_malloc_trim_r+0x4e>
     926:	bf00      	nop
     928:	200005a0 	andcs	r0, r0, r0, lsr #11
     92c:	20000560 	andcs	r0, r0, r0, ror #10
     930:	20000158 	andcs	r0, r0, r8, asr r1

00000934 <_free_r>:
     934:	2900      	cmp	r1, #0
     936:	d07c      	beq.n	a32 <_free_r+0xfe>
     938:	e92d 41f0 	stmdb	sp!, {r4, r5, r6, r7, r8, lr}
     93c:	460c      	mov	r4, r1
     93e:	4680      	mov	r8, r0
     940:	f000 f98c 	bl	c5c <__malloc_lock>
     944:	f854 3c04 	ldr.w	r3, [r4, #-4]
     948:	4f75      	ldr	r7, [pc, #468]	@ (b20 <_free_r+0x1ec>)
     94a:	f1a4 0508 	sub.w	r5, r4, #8
     94e:	f023 0101 	bic.w	r1, r3, #1
     952:	1868      	adds	r0, r5, r1
     954:	68be      	ldr	r6, [r7, #8]
     956:	6842      	ldr	r2, [r0, #4]
     958:	4286      	cmp	r6, r0
     95a:	f022 0203 	bic.w	r2, r2, #3
     95e:	f000 8083 	beq.w	a68 <_free_r+0x134>
     962:	07de      	lsls	r6, r3, #31
     964:	6042      	str	r2, [r0, #4]
     966:	eb00 0c02 	add.w	ip, r0, r2
     96a:	d433      	bmi.n	9d4 <_free_r+0xa0>
     96c:	f854 4c08 	ldr.w	r4, [r4, #-8]
     970:	f8dc 3004 	ldr.w	r3, [ip, #4]
     974:	1b2d      	subs	r5, r5, r4
     976:	4421      	add	r1, r4
     978:	68ac      	ldr	r4, [r5, #8]
     97a:	f107 0c08 	add.w	ip, r7, #8
     97e:	4564      	cmp	r4, ip
     980:	f003 0301 	and.w	r3, r3, #1
     984:	d064      	beq.n	a50 <_free_r+0x11c>
     986:	f8d5 e00c 	ldr.w	lr, [r5, #12]
     98a:	f8c4 e00c 	str.w	lr, [r4, #12]
     98e:	f8ce 4008 	str.w	r4, [lr, #8]
     992:	2b00      	cmp	r3, #0
     994:	f000 8081 	beq.w	a9a <_free_r+0x166>
     998:	f041 0301 	orr.w	r3, r1, #1
     99c:	606b      	str	r3, [r5, #4]
     99e:	6001      	str	r1, [r0, #0]
     9a0:	f5b1 7f00 	cmp.w	r1, #512	@ 0x200
     9a4:	d222      	bcs.n	9ec <_free_r+0xb8>
     9a6:	6878      	ldr	r0, [r7, #4]
     9a8:	08cb      	lsrs	r3, r1, #3
     9aa:	2201      	movs	r2, #1
     9ac:	0949      	lsrs	r1, r1, #5
     9ae:	3301      	adds	r3, #1
     9b0:	408a      	lsls	r2, r1
     9b2:	4302      	orrs	r2, r0
     9b4:	f857 1033 	ldr.w	r1, [r7, r3, lsl #3]
     9b8:	607a      	str	r2, [r7, #4]
     9ba:	eb07 02c3 	add.w	r2, r7, r3, lsl #3
     9be:	3a08      	subs	r2, #8
     9c0:	e9c5 1202 	strd	r1, r2, [r5, #8]
     9c4:	f847 5033 	str.w	r5, [r7, r3, lsl #3]
     9c8:	60cd      	str	r5, [r1, #12]
     9ca:	4640      	mov	r0, r8
     9cc:	e8bd 41f0 	ldmia.w	sp!, {r4, r5, r6, r7, r8, lr}
     9d0:	f000 b946 	b.w	c60 <__malloc_unlock>
     9d4:	f8dc 3004 	ldr.w	r3, [ip, #4]
     9d8:	07db      	lsls	r3, r3, #31
     9da:	d52b      	bpl.n	a34 <_free_r+0x100>
     9dc:	f041 0301 	orr.w	r3, r1, #1
     9e0:	f5b1 7f00 	cmp.w	r1, #512	@ 0x200
     9e4:	f844 3c04 	str.w	r3, [r4, #-4]
     9e8:	6001      	str	r1, [r0, #0]
     9ea:	d3dc      	bcc.n	9a6 <_free_r+0x72>
     9ec:	f5b1 6f20 	cmp.w	r1, #2560	@ 0xa00
     9f0:	ea4f 2351 	mov.w	r3, r1, lsr #9
     9f4:	d253      	bcs.n	a9e <_free_r+0x16a>
     9f6:	098b      	lsrs	r3, r1, #6
     9f8:	f103 0039 	add.w	r0, r3, #57	@ 0x39
     9fc:	f103 0238 	add.w	r2, r3, #56	@ 0x38
     a00:	00c3      	lsls	r3, r0, #3
     a02:	18f8      	adds	r0, r7, r3
     a04:	58fb      	ldr	r3, [r7, r3]
     a06:	3808      	subs	r0, #8
     a08:	4298      	cmp	r0, r3
     a0a:	d103      	bne.n	a14 <_free_r+0xe0>
     a0c:	e061      	b.n	ad2 <_free_r+0x19e>
     a0e:	689b      	ldr	r3, [r3, #8]
     a10:	4298      	cmp	r0, r3
     a12:	d004      	beq.n	a1e <_free_r+0xea>
     a14:	685a      	ldr	r2, [r3, #4]
     a16:	f022 0203 	bic.w	r2, r2, #3
     a1a:	428a      	cmp	r2, r1
     a1c:	d8f7      	bhi.n	a0e <_free_r+0xda>
     a1e:	68d8      	ldr	r0, [r3, #12]
     a20:	e9c5 3002 	strd	r3, r0, [r5, #8]
     a24:	6085      	str	r5, [r0, #8]
     a26:	60dd      	str	r5, [r3, #12]
     a28:	4640      	mov	r0, r8
     a2a:	e8bd 41f0 	ldmia.w	sp!, {r4, r5, r6, r7, r8, lr}
     a2e:	f000 b917 	b.w	c60 <__malloc_unlock>
     a32:	4770      	bx	lr
     a34:	4411      	add	r1, r2
     a36:	f107 0c08 	add.w	ip, r7, #8
     a3a:	6883      	ldr	r3, [r0, #8]
     a3c:	4563      	cmp	r3, ip
     a3e:	d03f      	beq.n	ac0 <_free_r+0x18c>
     a40:	68c2      	ldr	r2, [r0, #12]
     a42:	60da      	str	r2, [r3, #12]
     a44:	6093      	str	r3, [r2, #8]
     a46:	f041 0301 	orr.w	r3, r1, #1
     a4a:	606b      	str	r3, [r5, #4]
     a4c:	5069      	str	r1, [r5, r1]
     a4e:	e7a7      	b.n	9a0 <_free_r+0x6c>
     a50:	2b00      	cmp	r3, #0
     a52:	d15f      	bne.n	b14 <_free_r+0x1e0>
     a54:	440a      	add	r2, r1
     a56:	e9d0 1302 	ldrd	r1, r3, [r0, #8]
     a5a:	60cb      	str	r3, [r1, #12]
     a5c:	6099      	str	r1, [r3, #8]
     a5e:	f042 0301 	orr.w	r3, r2, #1
     a62:	606b      	str	r3, [r5, #4]
     a64:	50aa      	str	r2, [r5, r2]
     a66:	e7b0      	b.n	9ca <_free_r+0x96>
     a68:	07db      	lsls	r3, r3, #31
     a6a:	440a      	add	r2, r1
     a6c:	d407      	bmi.n	a7e <_free_r+0x14a>
     a6e:	f854 3c08 	ldr.w	r3, [r4, #-8]
     a72:	1aed      	subs	r5, r5, r3
     a74:	441a      	add	r2, r3
     a76:	e9d5 1302 	ldrd	r1, r3, [r5, #8]
     a7a:	60cb      	str	r3, [r1, #12]
     a7c:	6099      	str	r1, [r3, #8]
     a7e:	f042 0301 	orr.w	r3, r2, #1
     a82:	606b      	str	r3, [r5, #4]
     a84:	4b27      	ldr	r3, [pc, #156]	@ (b24 <_free_r+0x1f0>)
     a86:	60bd      	str	r5, [r7, #8]
     a88:	681b      	ldr	r3, [r3, #0]
     a8a:	4293      	cmp	r3, r2
     a8c:	d89d      	bhi.n	9ca <_free_r+0x96>
     a8e:	4b26      	ldr	r3, [pc, #152]	@ (b28 <_free_r+0x1f4>)
     a90:	4640      	mov	r0, r8
     a92:	6819      	ldr	r1, [r3, #0]
     a94:	f7ff fef2 	bl	87c <_malloc_trim_r>
     a98:	e797      	b.n	9ca <_free_r+0x96>
     a9a:	4411      	add	r1, r2
     a9c:	e7cd      	b.n	a3a <_free_r+0x106>
     a9e:	2b14      	cmp	r3, #20
     aa0:	d908      	bls.n	ab4 <_free_r+0x180>
     aa2:	2b54      	cmp	r3, #84	@ 0x54
     aa4:	d81d      	bhi.n	ae2 <_free_r+0x1ae>
     aa6:	0b0b      	lsrs	r3, r1, #12
     aa8:	f103 006f 	add.w	r0, r3, #111	@ 0x6f
     aac:	f103 026e 	add.w	r2, r3, #110	@ 0x6e
     ab0:	00c3      	lsls	r3, r0, #3
     ab2:	e7a6      	b.n	a02 <_free_r+0xce>
     ab4:	f103 005c 	add.w	r0, r3, #92	@ 0x5c
     ab8:	f103 025b 	add.w	r2, r3, #91	@ 0x5b
     abc:	00c3      	lsls	r3, r0, #3
     abe:	e7a0      	b.n	a02 <_free_r+0xce>
     ac0:	f041 0301 	orr.w	r3, r1, #1
     ac4:	e9c7 5504 	strd	r5, r5, [r7, #16]
     ac8:	e9c5 cc02 	strd	ip, ip, [r5, #8]
     acc:	606b      	str	r3, [r5, #4]
     ace:	5069      	str	r1, [r5, r1]
     ad0:	e77b      	b.n	9ca <_free_r+0x96>
     ad2:	6879      	ldr	r1, [r7, #4]
     ad4:	1092      	asrs	r2, r2, #2
     ad6:	2401      	movs	r4, #1
     ad8:	fa04 f202 	lsl.w	r2, r4, r2
     adc:	430a      	orrs	r2, r1
     ade:	607a      	str	r2, [r7, #4]
     ae0:	e79e      	b.n	a20 <_free_r+0xec>
     ae2:	f5b3 7faa 	cmp.w	r3, #340	@ 0x154
     ae6:	d806      	bhi.n	af6 <_free_r+0x1c2>
     ae8:	0bcb      	lsrs	r3, r1, #15
     aea:	f103 0078 	add.w	r0, r3, #120	@ 0x78
     aee:	f103 0277 	add.w	r2, r3, #119	@ 0x77
     af2:	00c3      	lsls	r3, r0, #3
     af4:	e785      	b.n	a02 <_free_r+0xce>
     af6:	f240 5254 	movw	r2, #1364	@ 0x554
     afa:	4293      	cmp	r3, r2
     afc:	d806      	bhi.n	b0c <_free_r+0x1d8>
     afe:	0c8b      	lsrs	r3, r1, #18
     b00:	f103 007d 	add.w	r0, r3, #125	@ 0x7d
     b04:	f103 027c 	add.w	r2, r3, #124	@ 0x7c
     b08:	00c3      	lsls	r3, r0, #3
     b0a:	e77a      	b.n	a02 <_free_r+0xce>
     b0c:	f44f 737e 	mov.w	r3, #1016	@ 0x3f8
     b10:	227e      	movs	r2, #126	@ 0x7e
     b12:	e776      	b.n	a02 <_free_r+0xce>
     b14:	f041 0301 	orr.w	r3, r1, #1
     b18:	606b      	str	r3, [r5, #4]
     b1a:	6001      	str	r1, [r0, #0]
     b1c:	e755      	b.n	9ca <_free_r+0x96>
     b1e:	bf00      	nop
     b20:	20000158 	andcs	r0, r0, r8, asr r1
     b24:	20000564 	andcs	r0, r0, r4, ror #10
     b28:	2000059c 	mulcs	r0, ip, r5

00000b2c <__call_exitprocs>:
     b2c:	e92d 4ff0 	stmdb	sp!, {r4, r5, r6, r7, r8, r9, sl, fp, lr}
     b30:	4f29      	ldr	r7, [pc, #164]	@ (bd8 <__call_exitprocs+0xac>)
     b32:	b083      	sub	sp, #12
     b34:	683e      	ldr	r6, [r7, #0]
     b36:	9001      	str	r0, [sp, #4]
     b38:	b35e      	cbz	r6, b92 <__call_exitprocs+0x66>
     b3a:	468b      	mov	fp, r1
     b3c:	f04f 0900 	mov.w	r9, #0
     b40:	f04f 0801 	mov.w	r8, #1
     b44:	6874      	ldr	r4, [r6, #4]
     b46:	1e65      	subs	r5, r4, #1
     b48:	d423      	bmi.n	b92 <__call_exitprocs+0x66>
     b4a:	3401      	adds	r4, #1
     b4c:	eb06 0484 	add.w	r4, r6, r4, lsl #2
     b50:	f1bb 0f00 	cmp.w	fp, #0
     b54:	d120      	bne.n	b98 <__call_exitprocs+0x6c>
     b56:	6873      	ldr	r3, [r6, #4]
     b58:	6822      	ldr	r2, [r4, #0]
     b5a:	3b01      	subs	r3, #1
     b5c:	42ab      	cmp	r3, r5
     b5e:	bf0c      	ite	eq
     b60:	6075      	streq	r5, [r6, #4]
     b62:	f8c4 9000 	strne.w	r9, [r4]
     b66:	b17a      	cbz	r2, b88 <__call_exitprocs+0x5c>
     b68:	f8d6 1188 	ldr.w	r1, [r6, #392]	@ 0x188
     b6c:	f8d6 a004 	ldr.w	sl, [r6, #4]
     b70:	fa08 fc05 	lsl.w	ip, r8, r5
     b74:	ea1c 0f01 	tst.w	ip, r1
     b78:	d11a      	bne.n	bb0 <__call_exitprocs+0x84>
     b7a:	4790      	blx	r2
     b7c:	6871      	ldr	r1, [r6, #4]
     b7e:	683a      	ldr	r2, [r7, #0]
     b80:	4551      	cmp	r1, sl
     b82:	d122      	bne.n	bca <__call_exitprocs+0x9e>
     b84:	42b2      	cmp	r2, r6
     b86:	d120      	bne.n	bca <__call_exitprocs+0x9e>
     b88:	3d01      	subs	r5, #1
     b8a:	1c6b      	adds	r3, r5, #1
     b8c:	f1a4 0404 	sub.w	r4, r4, #4
     b90:	d1de      	bne.n	b50 <__call_exitprocs+0x24>
     b92:	b003      	add	sp, #12
     b94:	e8bd 8ff0 	ldmia.w	sp!, {r4, r5, r6, r7, r8, r9, sl, fp, pc}
     b98:	f8d4 3100 	ldr.w	r3, [r4, #256]	@ 0x100
     b9c:	455b      	cmp	r3, fp
     b9e:	d0da      	beq.n	b56 <__call_exitprocs+0x2a>
     ba0:	3d01      	subs	r5, #1
     ba2:	1c6a      	adds	r2, r5, #1
     ba4:	f1a4 0404 	sub.w	r4, r4, #4
     ba8:	d1f6      	bne.n	b98 <__call_exitprocs+0x6c>
     baa:	b003      	add	sp, #12
     bac:	e8bd 8ff0 	ldmia.w	sp!, {r4, r5, r6, r7, r8, r9, sl, fp, pc}
     bb0:	f8d6 318c 	ldr.w	r3, [r6, #396]	@ 0x18c
     bb4:	f8d4 1080 	ldr.w	r1, [r4, #128]	@ 0x80
     bb8:	ea1c 0f03 	tst.w	ip, r3
     bbc:	d109      	bne.n	bd2 <__call_exitprocs+0xa6>
     bbe:	9801      	ldr	r0, [sp, #4]
     bc0:	4790      	blx	r2
     bc2:	6871      	ldr	r1, [r6, #4]
     bc4:	683a      	ldr	r2, [r7, #0]
     bc6:	4551      	cmp	r1, sl
     bc8:	d0dc      	beq.n	b84 <__call_exitprocs+0x58>
     bca:	2a00      	cmp	r2, #0
     bcc:	d0e1      	beq.n	b92 <__call_exitprocs+0x66>
     bce:	4616      	mov	r6, r2
     bd0:	e7b8      	b.n	b44 <__call_exitprocs+0x18>
     bd2:	4608      	mov	r0, r1
     bd4:	4790      	blx	r2
     bd6:	e7d1      	b.n	b7c <__call_exitprocs+0x50>
     bd8:	200005d0 	ldrdcs	r0, [r0], -r0	@ <UNPREDICTABLE>

00000bdc <sysconf>:
     bdc:	2808      	cmp	r0, #8
     bde:	d102      	bne.n	be6 <sysconf+0xa>
     be0:	f44f 5080 	mov.w	r0, #4096	@ 0x1000
     be4:	4770      	bx	lr
     be6:	b508      	push	{r3, lr}
     be8:	f000 f982 	bl	ef0 <__errno>
     bec:	2316      	movs	r3, #22
     bee:	6003      	str	r3, [r0, #0]
     bf0:	f04f 30ff 	mov.w	r0, #4294967295	@ 0xffffffff
     bf4:	bd08      	pop	{r3, pc}
     bf6:	bf00      	nop

00000bf8 <__register_exitproc>:
     bf8:	b470      	push	{r4, r5, r6}
     bfa:	4d16      	ldr	r5, [pc, #88]	@ (c54 <__register_exitproc+0x5c>)
     bfc:	682c      	ldr	r4, [r5, #0]
     bfe:	b31c      	cbz	r4, c48 <__register_exitproc+0x50>
     c00:	6865      	ldr	r5, [r4, #4]
     c02:	2d1f      	cmp	r5, #31
     c04:	dc23      	bgt.n	c4e <__register_exitproc+0x56>
     c06:	b938      	cbnz	r0, c18 <__register_exitproc+0x20>
     c08:	1cab      	adds	r3, r5, #2
     c0a:	3501      	adds	r5, #1
     c0c:	6065      	str	r5, [r4, #4]
     c0e:	f844 1023 	str.w	r1, [r4, r3, lsl #2]
     c12:	2000      	movs	r0, #0
     c14:	bc70      	pop	{r4, r5, r6}
     c16:	4770      	bx	lr
     c18:	eb04 0c85 	add.w	ip, r4, r5, lsl #2
     c1c:	2802      	cmp	r0, #2
     c1e:	f8cc 2088 	str.w	r2, [ip, #136]	@ 0x88
     c22:	f8d4 6188 	ldr.w	r6, [r4, #392]	@ 0x188
     c26:	f04f 0201 	mov.w	r2, #1
     c2a:	fa02 f205 	lsl.w	r2, r2, r5
     c2e:	ea46 0602 	orr.w	r6, r6, r2
     c32:	f8c4 6188 	str.w	r6, [r4, #392]	@ 0x188
     c36:	f8cc 3108 	str.w	r3, [ip, #264]	@ 0x108
     c3a:	d1e5      	bne.n	c08 <__register_exitproc+0x10>
     c3c:	f8d4 318c 	ldr.w	r3, [r4, #396]	@ 0x18c
     c40:	4313      	orrs	r3, r2
     c42:	f8c4 318c 	str.w	r3, [r4, #396]	@ 0x18c
     c46:	e7df      	b.n	c08 <__register_exitproc+0x10>
     c48:	4c03      	ldr	r4, [pc, #12]	@ (c58 <__register_exitproc+0x60>)
     c4a:	602c      	str	r4, [r5, #0]
     c4c:	e7d8      	b.n	c00 <__register_exitproc+0x8>
     c4e:	f04f 30ff 	mov.w	r0, #4294967295	@ 0xffffffff
     c52:	e7df      	b.n	c14 <__register_exitproc+0x1c>
     c54:	200005d0 	ldrdcs	r0, [r0], -r0	@ <UNPREDICTABLE>
     c58:	200005d4 	ldrdcs	r0, [r0], -r4

00000c5c <__malloc_lock>:
     c5c:	4770      	bx	lr
     c5e:	bf00      	nop

00000c60 <__malloc_unlock>:
     c60:	4770      	bx	lr
     c62:	bf00      	nop

00000c64 <__fp_lock>:
     c64:	2000      	movs	r0, #0
     c66:	4770      	bx	lr

00000c68 <stdio_exit_handler>:
     c68:	4a02      	ldr	r2, [pc, #8]	@ (c74 <stdio_exit_handler+0xc>)
     c6a:	4903      	ldr	r1, [pc, #12]	@ (c78 <stdio_exit_handler+0x10>)
     c6c:	4803      	ldr	r0, [pc, #12]	@ (c7c <stdio_exit_handler+0x14>)
     c6e:	f000 b91d 	b.w	eac <_fwalk_sglue>
     c72:	bf00      	nop
     c74:	20000568 	andcs	r0, r0, r8, ror #10
     c78:	00000efd 	strdeq	r0, [r0], -sp
     c7c:	20000038 	andcs	r0, r0, r8, lsr r0

00000c80 <cleanup_stdio>:
     c80:	4b0c      	ldr	r3, [pc, #48]	@ (cb4 <cleanup_stdio+0x34>)
     c82:	6841      	ldr	r1, [r0, #4]
     c84:	4299      	cmp	r1, r3
     c86:	b510      	push	{r4, lr}
     c88:	4604      	mov	r4, r0
     c8a:	d001      	beq.n	c90 <cleanup_stdio+0x10>
     c8c:	f000 f936 	bl	efc <_fclose_r>
     c90:	68a1      	ldr	r1, [r4, #8]
     c92:	4b09      	ldr	r3, [pc, #36]	@ (cb8 <cleanup_stdio+0x38>)
     c94:	4299      	cmp	r1, r3
     c96:	d002      	beq.n	c9e <cleanup_stdio+0x1e>
     c98:	4620      	mov	r0, r4
     c9a:	f000 f92f 	bl	efc <_fclose_r>
     c9e:	68e1      	ldr	r1, [r4, #12]
     ca0:	4b06      	ldr	r3, [pc, #24]	@ (cbc <cleanup_stdio+0x3c>)
     ca2:	4299      	cmp	r1, r3
     ca4:	d004      	beq.n	cb0 <cleanup_stdio+0x30>
     ca6:	4620      	mov	r0, r4
     ca8:	e8bd 4010 	ldmia.w	sp!, {r4, lr}
     cac:	f000 b926 	b.w	efc <_fclose_r>
     cb0:	bd10      	pop	{r4, pc}
     cb2:	bf00      	nop
     cb4:	20000764 	andcs	r0, r0, r4, ror #14
     cb8:	200007cc 	andcs	r0, r0, ip, asr #15
     cbc:	20000834 	andcs	r0, r0, r4, lsr r8

00000cc0 <__fp_unlock>:
     cc0:	2000      	movs	r0, #0
     cc2:	4770      	bx	lr

00000cc4 <global_stdio_init.part.0>:
     cc4:	e92d 43f8 	stmdb	sp!, {r3, r4, r5, r6, r7, r8, r9, lr}
     cc8:	4c2a      	ldr	r4, [pc, #168]	@ (d74 <global_stdio_init.part.0+0xb0>)
     cca:	492b      	ldr	r1, [pc, #172]	@ (d78 <global_stdio_init.part.0+0xb4>)
     ccc:	f8df 90bc 	ldr.w	r9, [pc, #188]	@ d8c <global_stdio_init.part.0+0xc8>
     cd0:	f8df 80bc 	ldr.w	r8, [pc, #188]	@ d90 <global_stdio_init.part.0+0xcc>
     cd4:	4f29      	ldr	r7, [pc, #164]	@ (d7c <global_stdio_init.part.0+0xb8>)
     cd6:	f8c4 1138 	str.w	r1, [r4, #312]	@ 0x138
     cda:	2500      	movs	r5, #0
     cdc:	2304      	movs	r3, #4
     cde:	2208      	movs	r2, #8
     ce0:	4629      	mov	r1, r5
     ce2:	f104 005c 	add.w	r0, r4, #92	@ 0x5c
     ce6:	4e26      	ldr	r6, [pc, #152]	@ (d80 <global_stdio_init.part.0+0xbc>)
     ce8:	60e3      	str	r3, [r4, #12]
     cea:	e9c4 5500 	strd	r5, r5, [r4]
     cee:	e9c4 5504 	strd	r5, r5, [r4, #16]
     cf2:	60a5      	str	r5, [r4, #8]
     cf4:	6665      	str	r5, [r4, #100]	@ 0x64
     cf6:	61a5      	str	r5, [r4, #24]
     cf8:	f7ff fa64 	bl	1c4 <memset>
     cfc:	4b21      	ldr	r3, [pc, #132]	@ (d84 <global_stdio_init.part.0+0xc0>)
     cfe:	6763      	str	r3, [r4, #116]	@ 0x74
     d00:	2208      	movs	r2, #8
     d02:	4629      	mov	r1, r5
     d04:	f104 00c4 	add.w	r0, r4, #196	@ 0xc4
     d08:	e9c4 4907 	strd	r4, r9, [r4, #28]
     d0c:	e9c4 8709 	strd	r8, r7, [r4, #36]	@ 0x24
     d10:	e9c4 551a 	strd	r5, r5, [r4, #104]	@ 0x68
     d14:	e9c4 551e 	strd	r5, r5, [r4, #120]	@ 0x78
     d18:	6725      	str	r5, [r4, #112]	@ 0x70
     d1a:	f8c4 50cc 	str.w	r5, [r4, #204]	@ 0xcc
     d1e:	f8c4 5080 	str.w	r5, [r4, #128]	@ 0x80
     d22:	62e6      	str	r6, [r4, #44]	@ 0x2c
     d24:	f7ff fa4e 	bl	1c4 <memset>
     d28:	4b17      	ldr	r3, [pc, #92]	@ (d88 <global_stdio_init.part.0+0xc4>)
     d2a:	f8c4 30dc 	str.w	r3, [r4, #220]	@ 0xdc
     d2e:	4629      	mov	r1, r5
     d30:	f104 0368 	add.w	r3, r4, #104	@ 0x68
     d34:	2208      	movs	r2, #8
     d36:	f504 7096 	add.w	r0, r4, #300	@ 0x12c
     d3a:	f8c4 3084 	str.w	r3, [r4, #132]	@ 0x84
     d3e:	e9c4 9822 	strd	r9, r8, [r4, #136]	@ 0x88
     d42:	e9c4 7624 	strd	r7, r6, [r4, #144]	@ 0x90
     d46:	e9c4 5534 	strd	r5, r5, [r4, #208]	@ 0xd0
     d4a:	e9c4 5538 	strd	r5, r5, [r4, #224]	@ 0xe0
     d4e:	f8c4 50d8 	str.w	r5, [r4, #216]	@ 0xd8
     d52:	f8c4 5134 	str.w	r5, [r4, #308]	@ 0x134
     d56:	f8c4 50e8 	str.w	r5, [r4, #232]	@ 0xe8
     d5a:	f7ff fa33 	bl	1c4 <memset>
     d5e:	f104 03d0 	add.w	r3, r4, #208	@ 0xd0
     d62:	e9c4 983c 	strd	r9, r8, [r4, #240]	@ 0xf0
     d66:	e9c4 763e 	strd	r7, r6, [r4, #248]	@ 0xf8
     d6a:	f8c4 30ec 	str.w	r3, [r4, #236]	@ 0xec
     d6e:	e8bd 83f8 	ldmia.w	sp!, {r3, r4, r5, r6, r7, r8, r9, pc}
     d72:	bf00      	nop
     d74:	20000764 	andcs	r0, r0, r4, ror #14
     d78:	00000c69 	andeq	r0, r0, r9, ror #24
     d7c:	00000ff5 	strdeq	r0, [r0], -r5
     d80:	00001019 	andeq	r1, r0, r9, lsl r0
     d84:	00010009 	andeq	r0, r1, r9
     d88:	00020012 	andeq	r0, r2, r2, lsl r0
     d8c:	00000f8d 	andeq	r0, r0, sp, lsl #31
     d90:	00000fb5 			@ <UNDEFINED> instruction: 0x00000fb5

00000d94 <__sfp>:
     d94:	b5f8      	push	{r3, r4, r5, r6, r7, lr}
     d96:	4b25      	ldr	r3, [pc, #148]	@ (e2c <__sfp+0x98>)
     d98:	f8d3 3138 	ldr.w	r3, [r3, #312]	@ 0x138
     d9c:	4606      	mov	r6, r0
     d9e:	2b00      	cmp	r3, #0
     da0:	d03c      	beq.n	e1c <__sfp+0x88>
     da2:	4f23      	ldr	r7, [pc, #140]	@ (e30 <__sfp+0x9c>)
     da4:	e9d7 3401 	ldrd	r3, r4, [r7, #4]
     da8:	3b01      	subs	r3, #1
     daa:	d504      	bpl.n	db6 <__sfp+0x22>
     dac:	e01d      	b.n	dea <__sfp+0x56>
     dae:	1c5a      	adds	r2, r3, #1
     db0:	f104 0468 	add.w	r4, r4, #104	@ 0x68
     db4:	d019      	beq.n	dea <__sfp+0x56>
     db6:	f9b4 500c 	ldrsh.w	r5, [r4, #12]
     dba:	3b01      	subs	r3, #1
     dbc:	2d00      	cmp	r5, #0
     dbe:	d1f6      	bne.n	dae <__sfp+0x1a>
     dc0:	4b1c      	ldr	r3, [pc, #112]	@ (e34 <__sfp+0xa0>)
     dc2:	60e3      	str	r3, [r4, #12]
     dc4:	e9c4 5501 	strd	r5, r5, [r4, #4]
     dc8:	e9c4 5504 	strd	r5, r5, [r4, #16]
     dcc:	6665      	str	r5, [r4, #100]	@ 0x64
     dce:	6025      	str	r5, [r4, #0]
     dd0:	61a5      	str	r5, [r4, #24]
     dd2:	2208      	movs	r2, #8
     dd4:	4629      	mov	r1, r5
     dd6:	f104 005c 	add.w	r0, r4, #92	@ 0x5c
     dda:	f7ff f9f3 	bl	1c4 <memset>
     dde:	e9c4 550c 	strd	r5, r5, [r4, #48]	@ 0x30
     de2:	e9c4 5511 	strd	r5, r5, [r4, #68]	@ 0x44
     de6:	4620      	mov	r0, r4
     de8:	bdf8      	pop	{r3, r4, r5, r6, r7, pc}
     dea:	683d      	ldr	r5, [r7, #0]
     dec:	b10d      	cbz	r5, df2 <__sfp+0x5e>
     dee:	462f      	mov	r7, r5
     df0:	e7d8      	b.n	da4 <__sfp+0x10>
     df2:	f44f 71d6 	mov.w	r1, #428	@ 0x1ac
     df6:	4630      	mov	r0, r6
     df8:	f7ff fa96 	bl	328 <_malloc_r>
     dfc:	4604      	mov	r4, r0
     dfe:	b180      	cbz	r0, e22 <__sfp+0x8e>
     e00:	2304      	movs	r3, #4
     e02:	e9c0 5300 	strd	r5, r3, [r0]
     e06:	300c      	adds	r0, #12
     e08:	4629      	mov	r1, r5
     e0a:	60a0      	str	r0, [r4, #8]
     e0c:	f44f 72d0 	mov.w	r2, #416	@ 0x1a0
     e10:	4625      	mov	r5, r4
     e12:	f7ff f9d7 	bl	1c4 <memset>
     e16:	603c      	str	r4, [r7, #0]
     e18:	462f      	mov	r7, r5
     e1a:	e7c3      	b.n	da4 <__sfp+0x10>
     e1c:	f7ff ff52 	bl	cc4 <global_stdio_init.part.0>
     e20:	e7bf      	b.n	da2 <__sfp+0xe>
     e22:	230c      	movs	r3, #12
     e24:	6038      	str	r0, [r7, #0]
     e26:	6033      	str	r3, [r6, #0]
     e28:	e7dd      	b.n	de6 <__sfp+0x52>
     e2a:	bf00      	nop
     e2c:	20000764 	andcs	r0, r0, r4, ror #14
     e30:	20000568 	andcs	r0, r0, r8, ror #10
     e34:	ffff0001 			@ <UNDEFINED> instruction: 0xffff0001

00000e38 <__sinit>:
     e38:	6b43      	ldr	r3, [r0, #52]	@ 0x34
     e3a:	b103      	cbz	r3, e3e <__sinit+0x6>
     e3c:	4770      	bx	lr
     e3e:	4b04      	ldr	r3, [pc, #16]	@ (e50 <__sinit+0x18>)
     e40:	4a04      	ldr	r2, [pc, #16]	@ (e54 <__sinit+0x1c>)
     e42:	f8d3 3138 	ldr.w	r3, [r3, #312]	@ 0x138
     e46:	6342      	str	r2, [r0, #52]	@ 0x34
     e48:	2b00      	cmp	r3, #0
     e4a:	d1f7      	bne.n	e3c <__sinit+0x4>
     e4c:	e73a      	b.n	cc4 <global_stdio_init.part.0>
     e4e:	bf00      	nop
     e50:	20000764 	andcs	r0, r0, r4, ror #14
     e54:	00000c81 	andeq	r0, r0, r1, lsl #25

00000e58 <__sfp_lock_acquire>:
     e58:	4770      	bx	lr
     e5a:	bf00      	nop

00000e5c <__sfp_lock_release>:
     e5c:	4770      	bx	lr
     e5e:	bf00      	nop

00000e60 <__fp_lock_all>:
     e60:	4a02      	ldr	r2, [pc, #8]	@ (e6c <__fp_lock_all+0xc>)
     e62:	4903      	ldr	r1, [pc, #12]	@ (e70 <__fp_lock_all+0x10>)
     e64:	2000      	movs	r0, #0
     e66:	f000 b821 	b.w	eac <_fwalk_sglue>
     e6a:	bf00      	nop
     e6c:	20000568 	andcs	r0, r0, r8, ror #10
     e70:	00000c65 	andeq	r0, r0, r5, ror #24

00000e74 <__fp_unlock_all>:
     e74:	4a02      	ldr	r2, [pc, #8]	@ (e80 <__fp_unlock_all+0xc>)
     e76:	4903      	ldr	r1, [pc, #12]	@ (e84 <__fp_unlock_all+0x10>)
     e78:	2000      	movs	r0, #0
     e7a:	f000 b817 	b.w	eac <_fwalk_sglue>
     e7e:	bf00      	nop
     e80:	20000568 	andcs	r0, r0, r8, ror #10
     e84:	00000cc1 	andeq	r0, r0, r1, asr #25

00000e88 <_sbrk_r>:
     e88:	b538      	push	{r3, r4, r5, lr}
     e8a:	4d07      	ldr	r5, [pc, #28]	@ (ea8 <_sbrk_r+0x20>)
     e8c:	2200      	movs	r2, #0
     e8e:	4604      	mov	r4, r0
     e90:	4608      	mov	r0, r1
     e92:	602a      	str	r2, [r5, #0]
     e94:	f000 fa3c 	bl	1310 <_sbrk>
     e98:	1c43      	adds	r3, r0, #1
     e9a:	d000      	beq.n	e9e <_sbrk_r+0x16>
     e9c:	bd38      	pop	{r3, r4, r5, pc}
     e9e:	682b      	ldr	r3, [r5, #0]
     ea0:	2b00      	cmp	r3, #0
     ea2:	d0fb      	beq.n	e9c <_sbrk_r+0x14>
     ea4:	6023      	str	r3, [r4, #0]
     ea6:	bd38      	pop	{r3, r4, r5, pc}
     ea8:	200008a0 	andcs	r0, r0, r0, lsr #17

00000eac <_fwalk_sglue>:
     eac:	e92d 43f8 	stmdb	sp!, {r3, r4, r5, r6, r7, r8, r9, lr}
     eb0:	4607      	mov	r7, r0
     eb2:	4688      	mov	r8, r1
     eb4:	4616      	mov	r6, r2
     eb6:	f04f 0900 	mov.w	r9, #0
     eba:	e9d6 5401 	ldrd	r5, r4, [r6, #4]
     ebe:	3d01      	subs	r5, #1
     ec0:	d410      	bmi.n	ee4 <_fwalk_sglue+0x38>
     ec2:	89a3      	ldrh	r3, [r4, #12]
     ec4:	2b01      	cmp	r3, #1
     ec6:	d908      	bls.n	eda <_fwalk_sglue+0x2e>
     ec8:	f9b4 300e 	ldrsh.w	r3, [r4, #14]
     ecc:	3301      	adds	r3, #1
     ece:	4621      	mov	r1, r4
     ed0:	4638      	mov	r0, r7
     ed2:	d002      	beq.n	eda <_fwalk_sglue+0x2e>
     ed4:	47c0      	blx	r8
     ed6:	ea49 0900 	orr.w	r9, r9, r0
     eda:	3d01      	subs	r5, #1
     edc:	1c6b      	adds	r3, r5, #1
     ede:	f104 0468 	add.w	r4, r4, #104	@ 0x68
     ee2:	d1ee      	bne.n	ec2 <_fwalk_sglue+0x16>
     ee4:	6836      	ldr	r6, [r6, #0]
     ee6:	2e00      	cmp	r6, #0
     ee8:	d1e7      	bne.n	eba <_fwalk_sglue+0xe>
     eea:	4648      	mov	r0, r9
     eec:	e8bd 83f8 	ldmia.w	sp!, {r3, r4, r5, r6, r7, r8, r9, pc}

00000ef0 <__errno>:
     ef0:	4b01      	ldr	r3, [pc, #4]	@ (ef8 <__errno+0x8>)
     ef2:	6818      	ldr	r0, [r3, #0]
     ef4:	4770      	bx	lr
     ef6:	bf00      	nop
     ef8:	20000030 	andcs	r0, r0, r0, lsr r0

00000efc <_fclose_r>:
     efc:	b570      	push	{r4, r5, r6, lr}
     efe:	b139      	cbz	r1, f10 <_fclose_r+0x14>
     f00:	4606      	mov	r6, r0
     f02:	460c      	mov	r4, r1
     f04:	b108      	cbz	r0, f0a <_fclose_r+0xe>
     f06:	6b43      	ldr	r3, [r0, #52]	@ 0x34
     f08:	b383      	cbz	r3, f6c <_fclose_r+0x70>
     f0a:	f9b4 300c 	ldrsh.w	r3, [r4, #12]
     f0e:	b913      	cbnz	r3, f16 <_fclose_r+0x1a>
     f10:	2500      	movs	r5, #0
     f12:	4628      	mov	r0, r5
     f14:	bd70      	pop	{r4, r5, r6, pc}
     f16:	4621      	mov	r1, r4
     f18:	4630      	mov	r0, r6
     f1a:	f000 f8df 	bl	10dc <__sflush_r>
     f1e:	6ae3      	ldr	r3, [r4, #44]	@ 0x2c
     f20:	4605      	mov	r5, r0
     f22:	b133      	cbz	r3, f32 <_fclose_r+0x36>
     f24:	69e1      	ldr	r1, [r4, #28]
     f26:	4630      	mov	r0, r6
     f28:	4798      	blx	r3
     f2a:	2800      	cmp	r0, #0
     f2c:	bfb8      	it	lt
     f2e:	f04f 35ff 	movlt.w	r5, #4294967295	@ 0xffffffff
     f32:	89a3      	ldrh	r3, [r4, #12]
     f34:	061b      	lsls	r3, r3, #24
     f36:	d41c      	bmi.n	f72 <_fclose_r+0x76>
     f38:	6b21      	ldr	r1, [r4, #48]	@ 0x30
     f3a:	b141      	cbz	r1, f4e <_fclose_r+0x52>
     f3c:	f104 0340 	add.w	r3, r4, #64	@ 0x40
     f40:	4299      	cmp	r1, r3
     f42:	d002      	beq.n	f4a <_fclose_r+0x4e>
     f44:	4630      	mov	r0, r6
     f46:	f7ff fcf5 	bl	934 <_free_r>
     f4a:	2300      	movs	r3, #0
     f4c:	6323      	str	r3, [r4, #48]	@ 0x30
     f4e:	6c61      	ldr	r1, [r4, #68]	@ 0x44
     f50:	b121      	cbz	r1, f5c <_fclose_r+0x60>
     f52:	4630      	mov	r0, r6
     f54:	f7ff fcee 	bl	934 <_free_r>
     f58:	2300      	movs	r3, #0
     f5a:	6463      	str	r3, [r4, #68]	@ 0x44
     f5c:	f7ff ff7c 	bl	e58 <__sfp_lock_acquire>
     f60:	2300      	movs	r3, #0
     f62:	81a3      	strh	r3, [r4, #12]
     f64:	f7ff ff7a 	bl	e5c <__sfp_lock_release>
     f68:	4628      	mov	r0, r5
     f6a:	bd70      	pop	{r4, r5, r6, pc}
     f6c:	f7ff ff64 	bl	e38 <__sinit>
     f70:	e7cb      	b.n	f0a <_fclose_r+0xe>
     f72:	6921      	ldr	r1, [r4, #16]
     f74:	4630      	mov	r0, r6
     f76:	f7ff fcdd 	bl	934 <_free_r>
     f7a:	e7dd      	b.n	f38 <_fclose_r+0x3c>

00000f7c <fclose>:
     f7c:	4b02      	ldr	r3, [pc, #8]	@ (f88 <fclose+0xc>)
     f7e:	4601      	mov	r1, r0
     f80:	6818      	ldr	r0, [r3, #0]
     f82:	f7ff bfbb 	b.w	efc <_fclose_r>
     f86:	bf00      	nop
     f88:	20000030 	andcs	r0, r0, r0, lsr r0

00000f8c <__sread>:
     f8c:	b510      	push	{r4, lr}
     f8e:	460c      	mov	r4, r1
     f90:	f9b1 100e 	ldrsh.w	r1, [r1, #14]
     f94:	f000 f978 	bl	1288 <_read_r>
     f98:	2800      	cmp	r0, #0
     f9a:	db03      	blt.n	fa4 <__sread+0x18>
     f9c:	6d23      	ldr	r3, [r4, #80]	@ 0x50
     f9e:	4403      	add	r3, r0
     fa0:	6523      	str	r3, [r4, #80]	@ 0x50
     fa2:	bd10      	pop	{r4, pc}
     fa4:	89a3      	ldrh	r3, [r4, #12]
     fa6:	f423 5380 	bic.w	r3, r3, #4096	@ 0x1000
     faa:	81a3      	strh	r3, [r4, #12]
     fac:	bd10      	pop	{r4, pc}
     fae:	bf00      	nop

00000fb0 <__seofread>:
     fb0:	2000      	movs	r0, #0
     fb2:	4770      	bx	lr

00000fb4 <__swrite>:
     fb4:	e92d 41f0 	stmdb	sp!, {r4, r5, r6, r7, r8, lr}
     fb8:	460c      	mov	r4, r1
     fba:	f9b1 100c 	ldrsh.w	r1, [r1, #12]
     fbe:	461f      	mov	r7, r3
     fc0:	05cb      	lsls	r3, r1, #23
     fc2:	4605      	mov	r5, r0
     fc4:	4616      	mov	r6, r2
     fc6:	d40b      	bmi.n	fe0 <__swrite+0x2c>
     fc8:	f421 5180 	bic.w	r1, r1, #4096	@ 0x1000
     fcc:	81a1      	strh	r1, [r4, #12]
     fce:	463b      	mov	r3, r7
     fd0:	f9b4 100e 	ldrsh.w	r1, [r4, #14]
     fd4:	4632      	mov	r2, r6
     fd6:	4628      	mov	r0, r5
     fd8:	e8bd 41f0 	ldmia.w	sp!, {r4, r5, r6, r7, r8, lr}
     fdc:	f000 b856 	b.w	108c <_write_r>
     fe0:	f9b4 100e 	ldrsh.w	r1, [r4, #14]
     fe4:	2302      	movs	r3, #2
     fe6:	2200      	movs	r2, #0
     fe8:	f000 f964 	bl	12b4 <_lseek_r>
     fec:	f9b4 100c 	ldrsh.w	r1, [r4, #12]
     ff0:	e7ea      	b.n	fc8 <__swrite+0x14>
     ff2:	bf00      	nop

00000ff4 <__sseek>:
     ff4:	b510      	push	{r4, lr}
     ff6:	460c      	mov	r4, r1
     ff8:	f9b1 100e 	ldrsh.w	r1, [r1, #14]
     ffc:	f000 f95a 	bl	12b4 <_lseek_r>
    1000:	f9b4 300c 	ldrsh.w	r3, [r4, #12]
    1004:	1c42      	adds	r2, r0, #1
    1006:	bf0e      	itee	eq
    1008:	f423 5380 	biceq.w	r3, r3, #4096	@ 0x1000
    100c:	f443 5380 	orrne.w	r3, r3, #4096	@ 0x1000
    1010:	6520      	strne	r0, [r4, #80]	@ 0x50
    1012:	81a3      	strh	r3, [r4, #12]
    1014:	bd10      	pop	{r4, pc}
    1016:	bf00      	nop

00001018 <__sclose>:
    1018:	f9b1 100e 	ldrsh.w	r1, [r1, #14]
    101c:	f000 b84c 	b.w	10b8 <_close_r>

00001020 <_reclaim_reent>:
    1020:	4b19      	ldr	r3, [pc, #100]	@ (1088 <_reclaim_reent+0x68>)
    1022:	681b      	ldr	r3, [r3, #0]
    1024:	4283      	cmp	r3, r0
    1026:	d02e      	beq.n	1086 <_reclaim_reent+0x66>
    1028:	6c41      	ldr	r1, [r0, #68]	@ 0x44
    102a:	b570      	push	{r4, r5, r6, lr}
    102c:	4605      	mov	r5, r0
    102e:	b181      	cbz	r1, 1052 <_reclaim_reent+0x32>
    1030:	2600      	movs	r6, #0
    1032:	598c      	ldr	r4, [r1, r6]
    1034:	b13c      	cbz	r4, 1046 <_reclaim_reent+0x26>
    1036:	4621      	mov	r1, r4
    1038:	6824      	ldr	r4, [r4, #0]
    103a:	4628      	mov	r0, r5
    103c:	f7ff fc7a 	bl	934 <_free_r>
    1040:	2c00      	cmp	r4, #0
    1042:	d1f8      	bne.n	1036 <_reclaim_reent+0x16>
    1044:	6c69      	ldr	r1, [r5, #68]	@ 0x44
    1046:	3604      	adds	r6, #4
    1048:	2e80      	cmp	r6, #128	@ 0x80
    104a:	d1f2      	bne.n	1032 <_reclaim_reent+0x12>
    104c:	4628      	mov	r0, r5
    104e:	f7ff fc71 	bl	934 <_free_r>
    1052:	6ba9      	ldr	r1, [r5, #56]	@ 0x38
    1054:	b111      	cbz	r1, 105c <_reclaim_reent+0x3c>
    1056:	4628      	mov	r0, r5
    1058:	f7ff fc6c 	bl	934 <_free_r>
    105c:	6c2c      	ldr	r4, [r5, #64]	@ 0x40
    105e:	b134      	cbz	r4, 106e <_reclaim_reent+0x4e>
    1060:	4621      	mov	r1, r4
    1062:	6824      	ldr	r4, [r4, #0]
    1064:	4628      	mov	r0, r5
    1066:	f7ff fc65 	bl	934 <_free_r>
    106a:	2c00      	cmp	r4, #0
    106c:	d1f8      	bne.n	1060 <_reclaim_reent+0x40>
    106e:	6ce9      	ldr	r1, [r5, #76]	@ 0x4c
    1070:	b111      	cbz	r1, 1078 <_reclaim_reent+0x58>
    1072:	4628      	mov	r0, r5
    1074:	f7ff fc5e 	bl	934 <_free_r>
    1078:	6b6b      	ldr	r3, [r5, #52]	@ 0x34
    107a:	b11b      	cbz	r3, 1084 <_reclaim_reent+0x64>
    107c:	4628      	mov	r0, r5
    107e:	e8bd 4070 	ldmia.w	sp!, {r4, r5, r6, lr}
    1082:	4718      	bx	r3
    1084:	bd70      	pop	{r4, r5, r6, pc}
    1086:	4770      	bx	lr
    1088:	20000030 	andcs	r0, r0, r0, lsr r0

0000108c <_write_r>:
    108c:	b538      	push	{r3, r4, r5, lr}
    108e:	460c      	mov	r4, r1
    1090:	4d08      	ldr	r5, [pc, #32]	@ (10b4 <_write_r+0x28>)
    1092:	4684      	mov	ip, r0
    1094:	4611      	mov	r1, r2
    1096:	4620      	mov	r0, r4
    1098:	461a      	mov	r2, r3
    109a:	2300      	movs	r3, #0
    109c:	602b      	str	r3, [r5, #0]
    109e:	4664      	mov	r4, ip
    10a0:	f000 f944 	bl	132c <_write>
    10a4:	1c43      	adds	r3, r0, #1
    10a6:	d000      	beq.n	10aa <_write_r+0x1e>
    10a8:	bd38      	pop	{r3, r4, r5, pc}
    10aa:	682b      	ldr	r3, [r5, #0]
    10ac:	2b00      	cmp	r3, #0
    10ae:	d0fb      	beq.n	10a8 <_write_r+0x1c>
    10b0:	6023      	str	r3, [r4, #0]
    10b2:	bd38      	pop	{r3, r4, r5, pc}
    10b4:	200008a0 	andcs	r0, r0, r0, lsr #17

000010b8 <_close_r>:
    10b8:	b538      	push	{r3, r4, r5, lr}
    10ba:	4d07      	ldr	r5, [pc, #28]	@ (10d8 <_close_r+0x20>)
    10bc:	2200      	movs	r2, #0
    10be:	4604      	mov	r4, r0
    10c0:	4608      	mov	r0, r1
    10c2:	602a      	str	r2, [r5, #0]
    10c4:	f000 f90c 	bl	12e0 <_close>
    10c8:	1c43      	adds	r3, r0, #1
    10ca:	d000      	beq.n	10ce <_close_r+0x16>
    10cc:	bd38      	pop	{r3, r4, r5, pc}
    10ce:	682b      	ldr	r3, [r5, #0]
    10d0:	2b00      	cmp	r3, #0
    10d2:	d0fb      	beq.n	10cc <_close_r+0x14>
    10d4:	6023      	str	r3, [r4, #0]
    10d6:	bd38      	pop	{r3, r4, r5, pc}
    10d8:	200008a0 	andcs	r0, r0, r0, lsr #17

000010dc <__sflush_r>:
    10dc:	f9b1 200c 	ldrsh.w	r2, [r1, #12]
    10e0:	e92d 41f0 	stmdb	sp!, {r4, r5, r6, r7, r8, lr}
    10e4:	0716      	lsls	r6, r2, #28
    10e6:	460c      	mov	r4, r1
    10e8:	4680      	mov	r8, r0
    10ea:	d44e      	bmi.n	118a <__sflush_r+0xae>
    10ec:	6849      	ldr	r1, [r1, #4]
    10ee:	f442 6300 	orr.w	r3, r2, #2048	@ 0x800
    10f2:	2900      	cmp	r1, #0
    10f4:	81a3      	strh	r3, [r4, #12]
    10f6:	dd63      	ble.n	11c0 <__sflush_r+0xe4>
    10f8:	6aa5      	ldr	r5, [r4, #40]	@ 0x28
    10fa:	2d00      	cmp	r5, #0
    10fc:	d042      	beq.n	1184 <__sflush_r+0xa8>
    10fe:	2100      	movs	r1, #0
    1100:	f412 5280 	ands.w	r2, r2, #4096	@ 0x1000
    1104:	f8d8 6000 	ldr.w	r6, [r8]
    1108:	f8c8 1000 	str.w	r1, [r8]
    110c:	69e1      	ldr	r1, [r4, #28]
    110e:	d164      	bne.n	11da <__sflush_r+0xfe>
    1110:	2301      	movs	r3, #1
    1112:	4640      	mov	r0, r8
    1114:	47a8      	blx	r5
    1116:	1c45      	adds	r5, r0, #1
    1118:	4602      	mov	r2, r0
    111a:	d06e      	beq.n	11fa <__sflush_r+0x11e>
    111c:	f9b4 300c 	ldrsh.w	r3, [r4, #12]
    1120:	6aa5      	ldr	r5, [r4, #40]	@ 0x28
    1122:	69e1      	ldr	r1, [r4, #28]
    1124:	0758      	lsls	r0, r3, #29
    1126:	d505      	bpl.n	1134 <__sflush_r+0x58>
    1128:	6863      	ldr	r3, [r4, #4]
    112a:	1ad2      	subs	r2, r2, r3
    112c:	6b23      	ldr	r3, [r4, #48]	@ 0x30
    112e:	b10b      	cbz	r3, 1134 <__sflush_r+0x58>
    1130:	6be3      	ldr	r3, [r4, #60]	@ 0x3c
    1132:	1ad2      	subs	r2, r2, r3
    1134:	2300      	movs	r3, #0
    1136:	4640      	mov	r0, r8
    1138:	47a8      	blx	r5
    113a:	1c43      	adds	r3, r0, #1
    113c:	d14f      	bne.n	11de <__sflush_r+0x102>
    113e:	f8d8 1000 	ldr.w	r1, [r8]
    1142:	f9b4 300c 	ldrsh.w	r3, [r4, #12]
    1146:	291d      	cmp	r1, #29
    1148:	d840      	bhi.n	11cc <__sflush_r+0xf0>
    114a:	4a31      	ldr	r2, [pc, #196]	@ (1210 <__sflush_r+0x134>)
    114c:	40ca      	lsrs	r2, r1
    114e:	07d7      	lsls	r7, r2, #31
    1150:	d53c      	bpl.n	11cc <__sflush_r+0xf0>
    1152:	6922      	ldr	r2, [r4, #16]
    1154:	6022      	str	r2, [r4, #0]
    1156:	f423 6200 	bic.w	r2, r3, #2048	@ 0x800
    115a:	81a2      	strh	r2, [r4, #12]
    115c:	04dd      	lsls	r5, r3, #19
    115e:	f04f 0200 	mov.w	r2, #0
    1162:	6062      	str	r2, [r4, #4]
    1164:	d501      	bpl.n	116a <__sflush_r+0x8e>
    1166:	2900      	cmp	r1, #0
    1168:	d045      	beq.n	11f6 <__sflush_r+0x11a>
    116a:	6b21      	ldr	r1, [r4, #48]	@ 0x30
    116c:	f8c8 6000 	str.w	r6, [r8]
    1170:	b141      	cbz	r1, 1184 <__sflush_r+0xa8>
    1172:	f104 0340 	add.w	r3, r4, #64	@ 0x40
    1176:	4299      	cmp	r1, r3
    1178:	d002      	beq.n	1180 <__sflush_r+0xa4>
    117a:	4640      	mov	r0, r8
    117c:	f7ff fbda 	bl	934 <_free_r>
    1180:	2300      	movs	r3, #0
    1182:	6323      	str	r3, [r4, #48]	@ 0x30
    1184:	2000      	movs	r0, #0
    1186:	e8bd 81f0 	ldmia.w	sp!, {r4, r5, r6, r7, r8, pc}
    118a:	690e      	ldr	r6, [r1, #16]
    118c:	2e00      	cmp	r6, #0
    118e:	d0f9      	beq.n	1184 <__sflush_r+0xa8>
    1190:	680d      	ldr	r5, [r1, #0]
    1192:	600e      	str	r6, [r1, #0]
    1194:	0792      	lsls	r2, r2, #30
    1196:	bf0c      	ite	eq
    1198:	694b      	ldreq	r3, [r1, #20]
    119a:	2300      	movne	r3, #0
    119c:	1bad      	subs	r5, r5, r6
    119e:	608b      	str	r3, [r1, #8]
    11a0:	e00b      	b.n	11ba <__sflush_r+0xde>
    11a2:	462b      	mov	r3, r5
    11a4:	4632      	mov	r2, r6
    11a6:	69e1      	ldr	r1, [r4, #28]
    11a8:	6a67      	ldr	r7, [r4, #36]	@ 0x24
    11aa:	4640      	mov	r0, r8
    11ac:	47b8      	blx	r7
    11ae:	f1b0 0c00 	subs.w	ip, r0, #0
    11b2:	eba5 050c 	sub.w	r5, r5, ip
    11b6:	4466      	add	r6, ip
    11b8:	dd06      	ble.n	11c8 <__sflush_r+0xec>
    11ba:	2d00      	cmp	r5, #0
    11bc:	dcf1      	bgt.n	11a2 <__sflush_r+0xc6>
    11be:	e7e1      	b.n	1184 <__sflush_r+0xa8>
    11c0:	6be1      	ldr	r1, [r4, #60]	@ 0x3c
    11c2:	2900      	cmp	r1, #0
    11c4:	dc98      	bgt.n	10f8 <__sflush_r+0x1c>
    11c6:	e7dd      	b.n	1184 <__sflush_r+0xa8>
    11c8:	f9b4 300c 	ldrsh.w	r3, [r4, #12]
    11cc:	f043 0340 	orr.w	r3, r3, #64	@ 0x40
    11d0:	81a3      	strh	r3, [r4, #12]
    11d2:	f04f 30ff 	mov.w	r0, #4294967295	@ 0xffffffff
    11d6:	e8bd 81f0 	ldmia.w	sp!, {r4, r5, r6, r7, r8, pc}
    11da:	6d22      	ldr	r2, [r4, #80]	@ 0x50
    11dc:	e7a2      	b.n	1124 <__sflush_r+0x48>
    11de:	f9b4 300c 	ldrsh.w	r3, [r4, #12]
    11e2:	6922      	ldr	r2, [r4, #16]
    11e4:	6022      	str	r2, [r4, #0]
    11e6:	f423 6200 	bic.w	r2, r3, #2048	@ 0x800
    11ea:	81a2      	strh	r2, [r4, #12]
    11ec:	04db      	lsls	r3, r3, #19
    11ee:	f04f 0200 	mov.w	r2, #0
    11f2:	6062      	str	r2, [r4, #4]
    11f4:	d5b9      	bpl.n	116a <__sflush_r+0x8e>
    11f6:	6520      	str	r0, [r4, #80]	@ 0x50
    11f8:	e7b7      	b.n	116a <__sflush_r+0x8e>
    11fa:	f8d8 3000 	ldr.w	r3, [r8]
    11fe:	2b00      	cmp	r3, #0
    1200:	d08c      	beq.n	111c <__sflush_r+0x40>
    1202:	2b1d      	cmp	r3, #29
    1204:	d001      	beq.n	120a <__sflush_r+0x12e>
    1206:	2b16      	cmp	r3, #22
    1208:	d1de      	bne.n	11c8 <__sflush_r+0xec>
    120a:	f8c8 6000 	str.w	r6, [r8]
    120e:	e7b9      	b.n	1184 <__sflush_r+0xa8>
    1210:	20400001 	subcs	r0, r0, r1

00001214 <_fflush_r>:
    1214:	b510      	push	{r4, lr}
    1216:	4604      	mov	r4, r0
    1218:	b082      	sub	sp, #8
    121a:	b108      	cbz	r0, 1220 <_fflush_r+0xc>
    121c:	6b43      	ldr	r3, [r0, #52]	@ 0x34
    121e:	b153      	cbz	r3, 1236 <_fflush_r+0x22>
    1220:	f9b1 000c 	ldrsh.w	r0, [r1, #12]
    1224:	b908      	cbnz	r0, 122a <_fflush_r+0x16>
    1226:	b002      	add	sp, #8
    1228:	bd10      	pop	{r4, pc}
    122a:	4620      	mov	r0, r4
    122c:	b002      	add	sp, #8
    122e:	e8bd 4010 	ldmia.w	sp!, {r4, lr}
    1232:	f7ff bf53 	b.w	10dc <__sflush_r>
    1236:	9101      	str	r1, [sp, #4]
    1238:	f7ff fdfe 	bl	e38 <__sinit>
    123c:	9901      	ldr	r1, [sp, #4]
    123e:	e7ef      	b.n	1220 <_fflush_r+0xc>

00001240 <fflush>:
    1240:	b1a0      	cbz	r0, 126c <fflush+0x2c>
    1242:	b538      	push	{r3, r4, r5, lr}
    1244:	4b0c      	ldr	r3, [pc, #48]	@ (1278 <fflush+0x38>)
    1246:	681d      	ldr	r5, [r3, #0]
    1248:	4604      	mov	r4, r0
    124a:	b10d      	cbz	r5, 1250 <fflush+0x10>
    124c:	6b6b      	ldr	r3, [r5, #52]	@ 0x34
    124e:	b14b      	cbz	r3, 1264 <fflush+0x24>
    1250:	f9b4 000c 	ldrsh.w	r0, [r4, #12]
    1254:	b900      	cbnz	r0, 1258 <fflush+0x18>
    1256:	bd38      	pop	{r3, r4, r5, pc}
    1258:	4621      	mov	r1, r4
    125a:	4628      	mov	r0, r5
    125c:	e8bd 4038 	ldmia.w	sp!, {r3, r4, r5, lr}
    1260:	f7ff bf3c 	b.w	10dc <__sflush_r>
    1264:	4628      	mov	r0, r5
    1266:	f7ff fde7 	bl	e38 <__sinit>
    126a:	e7f1      	b.n	1250 <fflush+0x10>
    126c:	4a03      	ldr	r2, [pc, #12]	@ (127c <fflush+0x3c>)
    126e:	4904      	ldr	r1, [pc, #16]	@ (1280 <fflush+0x40>)
    1270:	4804      	ldr	r0, [pc, #16]	@ (1284 <fflush+0x44>)
    1272:	f7ff be1b 	b.w	eac <_fwalk_sglue>
    1276:	bf00      	nop
    1278:	20000030 	andcs	r0, r0, r0, lsr r0
    127c:	20000568 	andcs	r0, r0, r8, ror #10
    1280:	00001215 	andeq	r1, r0, r5, lsl r2
    1284:	20000038 	andcs	r0, r0, r8, lsr r0

00001288 <_read_r>:
    1288:	b538      	push	{r3, r4, r5, lr}
    128a:	460c      	mov	r4, r1
    128c:	4d08      	ldr	r5, [pc, #32]	@ (12b0 <_read_r+0x28>)
    128e:	4684      	mov	ip, r0
    1290:	4611      	mov	r1, r2
    1292:	4620      	mov	r0, r4
    1294:	461a      	mov	r2, r3
    1296:	2300      	movs	r3, #0
    1298:	602b      	str	r3, [r5, #0]
    129a:	4664      	mov	r4, ip
    129c:	f000 f830 	bl	1300 <_read>
    12a0:	1c43      	adds	r3, r0, #1
    12a2:	d000      	beq.n	12a6 <_read_r+0x1e>
    12a4:	bd38      	pop	{r3, r4, r5, pc}
    12a6:	682b      	ldr	r3, [r5, #0]
    12a8:	2b00      	cmp	r3, #0
    12aa:	d0fb      	beq.n	12a4 <_read_r+0x1c>
    12ac:	6023      	str	r3, [r4, #0]
    12ae:	bd38      	pop	{r3, r4, r5, pc}
    12b0:	200008a0 	andcs	r0, r0, r0, lsr #17

000012b4 <_lseek_r>:
    12b4:	b538      	push	{r3, r4, r5, lr}
    12b6:	460c      	mov	r4, r1
    12b8:	4d08      	ldr	r5, [pc, #32]	@ (12dc <_lseek_r+0x28>)
    12ba:	4684      	mov	ip, r0
    12bc:	4611      	mov	r1, r2
    12be:	4620      	mov	r0, r4
    12c0:	461a      	mov	r2, r3
    12c2:	2300      	movs	r3, #0
    12c4:	602b      	str	r3, [r5, #0]
    12c6:	4664      	mov	r4, ip
    12c8:	f000 f812 	bl	12f0 <_lseek>
    12cc:	1c43      	adds	r3, r0, #1
    12ce:	d000      	beq.n	12d2 <_lseek_r+0x1e>
    12d0:	bd38      	pop	{r3, r4, r5, pc}
    12d2:	682b      	ldr	r3, [r5, #0]
    12d4:	2b00      	cmp	r3, #0
    12d6:	d0fb      	beq.n	12d0 <_lseek_r+0x1c>
    12d8:	6023      	str	r3, [r4, #0]
    12da:	bd38      	pop	{r3, r4, r5, pc}
    12dc:	200008a0 	andcs	r0, r0, r0, lsr #17

000012e0 <_close>:
    12e0:	4b02      	ldr	r3, [pc, #8]	@ (12ec <_close+0xc>)
    12e2:	2258      	movs	r2, #88	@ 0x58
    12e4:	601a      	str	r2, [r3, #0]
    12e6:	f04f 30ff 	mov.w	r0, #4294967295	@ 0xffffffff
    12ea:	4770      	bx	lr
    12ec:	200008a0 	andcs	r0, r0, r0, lsr #17

000012f0 <_lseek>:
    12f0:	4b02      	ldr	r3, [pc, #8]	@ (12fc <_lseek+0xc>)
    12f2:	2258      	movs	r2, #88	@ 0x58
    12f4:	601a      	str	r2, [r3, #0]
    12f6:	f04f 30ff 	mov.w	r0, #4294967295	@ 0xffffffff
    12fa:	4770      	bx	lr
    12fc:	200008a0 	andcs	r0, r0, r0, lsr #17

00001300 <_read>:
    1300:	4b02      	ldr	r3, [pc, #8]	@ (130c <_read+0xc>)
    1302:	2258      	movs	r2, #88	@ 0x58
    1304:	601a      	str	r2, [r3, #0]
    1306:	f04f 30ff 	mov.w	r0, #4294967295	@ 0xffffffff
    130a:	4770      	bx	lr
    130c:	200008a0 	andcs	r0, r0, r0, lsr #17

00001310 <_sbrk>:
    1310:	4a04      	ldr	r2, [pc, #16]	@ (1324 <_sbrk+0x14>)
    1312:	4905      	ldr	r1, [pc, #20]	@ (1328 <_sbrk+0x18>)
    1314:	6813      	ldr	r3, [r2, #0]
    1316:	2b00      	cmp	r3, #0
    1318:	bf08      	it	eq
    131a:	460b      	moveq	r3, r1
    131c:	4418      	add	r0, r3
    131e:	6010      	str	r0, [r2, #0]
    1320:	4618      	mov	r0, r3
    1322:	4770      	bx	lr
    1324:	200008a4 	andcs	r0, r0, r4, lsr #17
    1328:	200008a8 	andcs	r0, r0, r8, lsr #17

0000132c <_write>:
    132c:	4b02      	ldr	r3, [pc, #8]	@ (1338 <_write+0xc>)
    132e:	2258      	movs	r2, #88	@ 0x58
    1330:	601a      	str	r2, [r3, #0]
    1332:	f04f 30ff 	mov.w	r0, #4294967295	@ 0xffffffff
    1336:	4770      	bx	lr
    1338:	200008a0 	andcs	r0, r0, r0, lsr #17

0000133c <_exit>:
    133c:	e7fe      	b.n	133c <_exit>
    133e:	bf00      	nop

00001340 <register_fini>:
    1340:	4b02      	ldr	r3, [pc, #8]	@ (134c <register_fini+0xc>)
    1342:	b113      	cbz	r3, 134a <register_fini+0xa>
    1344:	4802      	ldr	r0, [pc, #8]	@ (1350 <register_fini+0x10>)
    1346:	f7fe bfd5 	b.w	2f4 <atexit>
    134a:	4770      	bx	lr
    134c:	00000000 	andeq	r0, r0, r0
    1350:	00000301 	andeq	r0, r0, r1, lsl #6

00001354 <__frame_dummy_init_array_entry>:
    1354:	00000069 	andeq	r0, r0, r9, rrx
    1358:	00001341 	andeq	r1, r0, r1, asr #6

0000135c <_init>:
    135c:	b5f8      	push	{r3, r4, r5, r6, r7, lr}
    135e:	bf00      	nop
    1360:	bcf8      	pop	{r3, r4, r5, r6, r7}
    1362:	bc08      	pop	{r3}
    1364:	469e      	mov	lr, r3
    1366:	4770      	bx	lr

00001368 <_fini>:
    1368:	b5f8      	push	{r3, r4, r5, r6, r7, lr}
    136a:	bf00      	nop

0000136c <__do_global_dtors_aux_fini_array_entry>:
    136c:	00000041 	andeq	r0, r0, r1, asr #32
    1370:	bcf8      	pop	{r3, r4, r5, r6, r7}
    1372:	bc08      	pop	{r3}
    1374:	469e      	mov	lr, r3
    1376:	4770      	bx	lr
