
course1.out:     file format elf64-x86-64


Disassembly of section .init:

0000000000001000 <_init>:
    1000:	f3 0f 1e fa          	endbr64
    1004:	48 83 ec 08          	sub    $0x8,%rsp
    1008:	48 8b 05 d9 3f 00 00 	mov    0x3fd9(%rip),%rax        # 4fe8 <__gmon_start__@Base>
    100f:	48 85 c0             	test   %rax,%rax
    1012:	74 02                	je     1016 <_init+0x16>
    1014:	ff d0                	call   *%rax
    1016:	48 83 c4 08          	add    $0x8,%rsp
    101a:	c3                   	ret

Disassembly of section .plt:

0000000000001020 <.plt>:
    1020:	ff 35 72 3f 00 00    	push   0x3f72(%rip)        # 4f98 <_GLOBAL_OFFSET_TABLE_+0x8>
    1026:	ff 25 74 3f 00 00    	jmp    *0x3f74(%rip)        # 4fa0 <_GLOBAL_OFFSET_TABLE_+0x10>
    102c:	0f 1f 40 00          	nopl   0x0(%rax)
    1030:	f3 0f 1e fa          	endbr64
    1034:	68 00 00 00 00       	push   $0x0
    1039:	e9 e2 ff ff ff       	jmp    1020 <_init+0x20>
    103e:	66 90                	xchg   %ax,%ax
    1040:	f3 0f 1e fa          	endbr64
    1044:	68 01 00 00 00       	push   $0x1
    1049:	e9 d2 ff ff ff       	jmp    1020 <_init+0x20>
    104e:	66 90                	xchg   %ax,%ax
    1050:	f3 0f 1e fa          	endbr64
    1054:	68 02 00 00 00       	push   $0x2
    1059:	e9 c2 ff ff ff       	jmp    1020 <_init+0x20>
    105e:	66 90                	xchg   %ax,%ax
    1060:	f3 0f 1e fa          	endbr64
    1064:	68 03 00 00 00       	push   $0x3
    1069:	e9 b2 ff ff ff       	jmp    1020 <_init+0x20>
    106e:	66 90                	xchg   %ax,%ax
    1070:	f3 0f 1e fa          	endbr64
    1074:	68 04 00 00 00       	push   $0x4
    1079:	e9 a2 ff ff ff       	jmp    1020 <_init+0x20>
    107e:	66 90                	xchg   %ax,%ax
    1080:	f3 0f 1e fa          	endbr64
    1084:	68 05 00 00 00       	push   $0x5
    1089:	e9 92 ff ff ff       	jmp    1020 <_init+0x20>
    108e:	66 90                	xchg   %ax,%ax

Disassembly of section .plt.got:

0000000000001090 <__cxa_finalize@plt>:
    1090:	f3 0f 1e fa          	endbr64
    1094:	ff 25 5e 3f 00 00    	jmp    *0x3f5e(%rip)        # 4ff8 <__cxa_finalize@GLIBC_2.2.5>
    109a:	66 0f 1f 44 00 00    	nopw   0x0(%rax,%rax,1)

Disassembly of section .plt.sec:

00000000000010a0 <free@plt>:
    10a0:	f3 0f 1e fa          	endbr64
    10a4:	ff 25 fe 3e 00 00    	jmp    *0x3efe(%rip)        # 4fa8 <free@GLIBC_2.2.5>
    10aa:	66 0f 1f 44 00 00    	nopw   0x0(%rax,%rax,1)

00000000000010b0 <putchar@plt>:
    10b0:	f3 0f 1e fa          	endbr64
    10b4:	ff 25 f6 3e 00 00    	jmp    *0x3ef6(%rip)        # 4fb0 <putchar@GLIBC_2.2.5>
    10ba:	66 0f 1f 44 00 00    	nopw   0x0(%rax,%rax,1)

00000000000010c0 <puts@plt>:
    10c0:	f3 0f 1e fa          	endbr64
    10c4:	ff 25 ee 3e 00 00    	jmp    *0x3eee(%rip)        # 4fb8 <puts@GLIBC_2.2.5>
    10ca:	66 0f 1f 44 00 00    	nopw   0x0(%rax,%rax,1)

00000000000010d0 <__stack_chk_fail@plt>:
    10d0:	f3 0f 1e fa          	endbr64
    10d4:	ff 25 e6 3e 00 00    	jmp    *0x3ee6(%rip)        # 4fc0 <__stack_chk_fail@GLIBC_2.4>
    10da:	66 0f 1f 44 00 00    	nopw   0x0(%rax,%rax,1)

00000000000010e0 <printf@plt>:
    10e0:	f3 0f 1e fa          	endbr64
    10e4:	ff 25 de 3e 00 00    	jmp    *0x3ede(%rip)        # 4fc8 <printf@GLIBC_2.2.5>
    10ea:	66 0f 1f 44 00 00    	nopw   0x0(%rax,%rax,1)

00000000000010f0 <malloc@plt>:
    10f0:	f3 0f 1e fa          	endbr64
    10f4:	ff 25 d6 3e 00 00    	jmp    *0x3ed6(%rip)        # 4fd0 <malloc@GLIBC_2.2.5>
    10fa:	66 0f 1f 44 00 00    	nopw   0x0(%rax,%rax,1)

Disassembly of section .text:

0000000000001100 <_start>:
    1100:	f3 0f 1e fa          	endbr64
    1104:	31 ed                	xor    %ebp,%ebp
    1106:	49 89 d1             	mov    %rdx,%r9
    1109:	5e                   	pop    %rsi
    110a:	48 89 e2             	mov    %rsp,%rdx
    110d:	48 83 e4 f0          	and    $0xfffffffffffffff0,%rsp
    1111:	50                   	push   %rax
    1112:	54                   	push   %rsp
    1113:	45 31 c0             	xor    %r8d,%r8d
    1116:	31 c9                	xor    %ecx,%ecx
    1118:	48 8d 3d ca 00 00 00 	lea    0xca(%rip),%rdi        # 11e9 <main>
    111f:	ff 15 b3 3e 00 00    	call   *0x3eb3(%rip)        # 4fd8 <__libc_start_main@GLIBC_2.34>
    1125:	f4                   	hlt
    1126:	66 2e 0f 1f 84 00 00 	cs nopw 0x0(%rax,%rax,1)
    112d:	00 00 00 

0000000000001130 <deregister_tm_clones>:
    1130:	48 8d 3d d9 3e 00 00 	lea    0x3ed9(%rip),%rdi        # 5010 <__TMC_END__>
    1137:	48 8d 05 d2 3e 00 00 	lea    0x3ed2(%rip),%rax        # 5010 <__TMC_END__>
    113e:	48 39 f8             	cmp    %rdi,%rax
    1141:	74 15                	je     1158 <deregister_tm_clones+0x28>
    1143:	48 8b 05 96 3e 00 00 	mov    0x3e96(%rip),%rax        # 4fe0 <_ITM_deregisterTMCloneTable@Base>
    114a:	48 85 c0             	test   %rax,%rax
    114d:	74 09                	je     1158 <deregister_tm_clones+0x28>
    114f:	ff e0                	jmp    *%rax
    1151:	0f 1f 80 00 00 00 00 	nopl   0x0(%rax)
    1158:	c3                   	ret
    1159:	0f 1f 80 00 00 00 00 	nopl   0x0(%rax)

0000000000001160 <register_tm_clones>:
    1160:	48 8d 3d a9 3e 00 00 	lea    0x3ea9(%rip),%rdi        # 5010 <__TMC_END__>
    1167:	48 8d 35 a2 3e 00 00 	lea    0x3ea2(%rip),%rsi        # 5010 <__TMC_END__>
    116e:	48 29 fe             	sub    %rdi,%rsi
    1171:	48 89 f0             	mov    %rsi,%rax
    1174:	48 c1 ee 3f          	shr    $0x3f,%rsi
    1178:	48 c1 f8 03          	sar    $0x3,%rax
    117c:	48 01 c6             	add    %rax,%rsi
    117f:	48 d1 fe             	sar    $1,%rsi
    1182:	74 14                	je     1198 <register_tm_clones+0x38>
    1184:	48 8b 05 65 3e 00 00 	mov    0x3e65(%rip),%rax        # 4ff0 <_ITM_registerTMCloneTable@Base>
    118b:	48 85 c0             	test   %rax,%rax
    118e:	74 08                	je     1198 <register_tm_clones+0x38>
    1190:	ff e0                	jmp    *%rax
    1192:	66 0f 1f 44 00 00    	nopw   0x0(%rax,%rax,1)
    1198:	c3                   	ret
    1199:	0f 1f 80 00 00 00 00 	nopl   0x0(%rax)

00000000000011a0 <__do_global_dtors_aux>:
    11a0:	f3 0f 1e fa          	endbr64
    11a4:	80 3d 65 3e 00 00 00 	cmpb   $0x0,0x3e65(%rip)        # 5010 <__TMC_END__>
    11ab:	75 2b                	jne    11d8 <__do_global_dtors_aux+0x38>
    11ad:	55                   	push   %rbp
    11ae:	48 83 3d 42 3e 00 00 	cmpq   $0x0,0x3e42(%rip)        # 4ff8 <__cxa_finalize@GLIBC_2.2.5>
    11b5:	00 
    11b6:	48 89 e5             	mov    %rsp,%rbp
    11b9:	74 0c                	je     11c7 <__do_global_dtors_aux+0x27>
    11bb:	48 8b 3d 46 3e 00 00 	mov    0x3e46(%rip),%rdi        # 5008 <__dso_handle>
    11c2:	e8 c9 fe ff ff       	call   1090 <__cxa_finalize@plt>
    11c7:	e8 64 ff ff ff       	call   1130 <deregister_tm_clones>
    11cc:	c6 05 3d 3e 00 00 01 	movb   $0x1,0x3e3d(%rip)        # 5010 <__TMC_END__>
    11d3:	5d                   	pop    %rbp
    11d4:	c3                   	ret
    11d5:	0f 1f 00             	nopl   (%rax)
    11d8:	c3                   	ret
    11d9:	0f 1f 80 00 00 00 00 	nopl   0x0(%rax)

00000000000011e0 <frame_dummy>:
    11e0:	f3 0f 1e fa          	endbr64
    11e4:	e9 77 ff ff ff       	jmp    1160 <register_tm_clones>

00000000000011e9 <main>:
    11e9:	f3 0f 1e fa          	endbr64
    11ed:	55                   	push   %rbp
    11ee:	48 89 e5             	mov    %rsp,%rbp
    11f1:	e8 07 10 00 00       	call   21fd <course1>
    11f6:	b8 00 00 00 00       	mov    $0x0,%eax
    11fb:	5d                   	pop    %rbp
    11fc:	c3                   	ret

00000000000011fd <set_value>:
    11fd:	f3 0f 1e fa          	endbr64
    1201:	55                   	push   %rbp
    1202:	48 89 e5             	mov    %rsp,%rbp
    1205:	48 89 7d f8          	mov    %rdi,-0x8(%rbp)
    1209:	89 75 f4             	mov    %esi,-0xc(%rbp)
    120c:	89 d0                	mov    %edx,%eax
    120e:	88 45 f0             	mov    %al,-0x10(%rbp)
    1211:	8b 55 f4             	mov    -0xc(%rbp),%edx
    1214:	48 8b 45 f8          	mov    -0x8(%rbp),%rax
    1218:	48 01 c2             	add    %rax,%rdx
    121b:	0f b6 45 f0          	movzbl -0x10(%rbp),%eax
    121f:	88 02                	mov    %al,(%rdx)
    1221:	90                   	nop
    1222:	5d                   	pop    %rbp
    1223:	c3                   	ret

0000000000001224 <clear_value>:
    1224:	f3 0f 1e fa          	endbr64
    1228:	55                   	push   %rbp
    1229:	48 89 e5             	mov    %rsp,%rbp
    122c:	48 83 ec 10          	sub    $0x10,%rsp
    1230:	48 89 7d f8          	mov    %rdi,-0x8(%rbp)
    1234:	89 75 f4             	mov    %esi,-0xc(%rbp)
    1237:	8b 4d f4             	mov    -0xc(%rbp),%ecx
    123a:	48 8b 45 f8          	mov    -0x8(%rbp),%rax
    123e:	ba 00 00 00 00       	mov    $0x0,%edx
    1243:	89 ce                	mov    %ecx,%esi
    1245:	48 89 c7             	mov    %rax,%rdi
    1248:	e8 b0 ff ff ff       	call   11fd <set_value>
    124d:	90                   	nop
    124e:	c9                   	leave
    124f:	c3                   	ret

0000000000001250 <get_value>:
    1250:	f3 0f 1e fa          	endbr64
    1254:	55                   	push   %rbp
    1255:	48 89 e5             	mov    %rsp,%rbp
    1258:	48 89 7d f8          	mov    %rdi,-0x8(%rbp)
    125c:	89 75 f4             	mov    %esi,-0xc(%rbp)
    125f:	8b 55 f4             	mov    -0xc(%rbp),%edx
    1262:	48 8b 45 f8          	mov    -0x8(%rbp),%rax
    1266:	48 01 d0             	add    %rdx,%rax
    1269:	0f b6 00             	movzbl (%rax),%eax
    126c:	5d                   	pop    %rbp
    126d:	c3                   	ret

000000000000126e <set_all>:
    126e:	f3 0f 1e fa          	endbr64
    1272:	55                   	push   %rbp
    1273:	48 89 e5             	mov    %rsp,%rbp
    1276:	48 83 ec 20          	sub    $0x20,%rsp
    127a:	48 89 7d e8          	mov    %rdi,-0x18(%rbp)
    127e:	89 f0                	mov    %esi,%eax
    1280:	89 55 e0             	mov    %edx,-0x20(%rbp)
    1283:	88 45 e4             	mov    %al,-0x1c(%rbp)
    1286:	c7 45 fc 00 00 00 00 	movl   $0x0,-0x4(%rbp)
    128d:	eb 19                	jmp    12a8 <set_all+0x3a>
    128f:	0f be 55 e4          	movsbl -0x1c(%rbp),%edx
    1293:	8b 4d fc             	mov    -0x4(%rbp),%ecx
    1296:	48 8b 45 e8          	mov    -0x18(%rbp),%rax
    129a:	89 ce                	mov    %ecx,%esi
    129c:	48 89 c7             	mov    %rax,%rdi
    129f:	e8 59 ff ff ff       	call   11fd <set_value>
    12a4:	83 45 fc 01          	addl   $0x1,-0x4(%rbp)
    12a8:	8b 45 fc             	mov    -0x4(%rbp),%eax
    12ab:	3b 45 e0             	cmp    -0x20(%rbp),%eax
    12ae:	72 df                	jb     128f <set_all+0x21>
    12b0:	90                   	nop
    12b1:	90                   	nop
    12b2:	c9                   	leave
    12b3:	c3                   	ret

00000000000012b4 <clear_all>:
    12b4:	f3 0f 1e fa          	endbr64
    12b8:	55                   	push   %rbp
    12b9:	48 89 e5             	mov    %rsp,%rbp
    12bc:	48 83 ec 10          	sub    $0x10,%rsp
    12c0:	48 89 7d f8          	mov    %rdi,-0x8(%rbp)
    12c4:	89 75 f4             	mov    %esi,-0xc(%rbp)
    12c7:	8b 55 f4             	mov    -0xc(%rbp),%edx
    12ca:	48 8b 45 f8          	mov    -0x8(%rbp),%rax
    12ce:	be 00 00 00 00       	mov    $0x0,%esi
    12d3:	48 89 c7             	mov    %rax,%rdi
    12d6:	e8 93 ff ff ff       	call   126e <set_all>
    12db:	90                   	nop
    12dc:	c9                   	leave
    12dd:	c3                   	ret

00000000000012de <my_memmove>:
    12de:	f3 0f 1e fa          	endbr64
    12e2:	55                   	push   %rbp
    12e3:	48 89 e5             	mov    %rsp,%rbp
    12e6:	48 83 ec 40          	sub    $0x40,%rsp
    12ea:	48 89 7d d8          	mov    %rdi,-0x28(%rbp)
    12ee:	48 89 75 d0          	mov    %rsi,-0x30(%rbp)
    12f2:	48 89 55 c8          	mov    %rdx,-0x38(%rbp)
    12f6:	64 48 8b 04 25 28 00 	mov    %fs:0x28,%rax
    12fd:	00 00 
    12ff:	48 89 45 f8          	mov    %rax,-0x8(%rbp)
    1303:	31 c0                	xor    %eax,%eax
    1305:	48 89 e0             	mov    %rsp,%rax
    1308:	48 89 c6             	mov    %rax,%rsi
    130b:	48 8b 45 c8          	mov    -0x38(%rbp),%rax
    130f:	48 89 c2             	mov    %rax,%rdx
    1312:	48 83 ea 01          	sub    $0x1,%rdx
    1316:	48 89 55 e8          	mov    %rdx,-0x18(%rbp)
    131a:	ba 10 00 00 00       	mov    $0x10,%edx
    131f:	48 83 ea 01          	sub    $0x1,%rdx
    1323:	48 01 d0             	add    %rdx,%rax
    1326:	bf 10 00 00 00       	mov    $0x10,%edi
    132b:	ba 00 00 00 00       	mov    $0x0,%edx
    1330:	48 f7 f7             	div    %rdi
    1333:	48 6b c0 10          	imul   $0x10,%rax,%rax
    1337:	48 89 c1             	mov    %rax,%rcx
    133a:	48 81 e1 00 f0 ff ff 	and    $0xfffffffffffff000,%rcx
    1341:	48 89 e2             	mov    %rsp,%rdx
    1344:	48 29 ca             	sub    %rcx,%rdx
    1347:	48 39 d4             	cmp    %rdx,%rsp
    134a:	74 12                	je     135e <my_memmove+0x80>
    134c:	48 81 ec 00 10 00 00 	sub    $0x1000,%rsp
    1353:	48 83 8c 24 f8 0f 00 	orq    $0x0,0xff8(%rsp)
    135a:	00 00 
    135c:	eb e9                	jmp    1347 <my_memmove+0x69>
    135e:	48 89 c2             	mov    %rax,%rdx
    1361:	81 e2 ff 0f 00 00    	and    $0xfff,%edx
    1367:	48 29 d4             	sub    %rdx,%rsp
    136a:	48 89 c2             	mov    %rax,%rdx
    136d:	81 e2 ff 0f 00 00    	and    $0xfff,%edx
    1373:	48 85 d2             	test   %rdx,%rdx
    1376:	74 10                	je     1388 <my_memmove+0xaa>
    1378:	25 ff 0f 00 00       	and    $0xfff,%eax
    137d:	48 83 e8 08          	sub    $0x8,%rax
    1381:	48 01 e0             	add    %rsp,%rax
    1384:	48 83 08 00          	orq    $0x0,(%rax)
    1388:	48 89 e0             	mov    %rsp,%rax
    138b:	48 83 c0 00          	add    $0x0,%rax
    138f:	48 89 45 f0          	mov    %rax,-0x10(%rbp)
    1393:	c6 45 e7 00          	movb   $0x0,-0x19(%rbp)
    1397:	eb 25                	jmp    13be <my_memmove+0xe0>
    1399:	0f b6 55 e7          	movzbl -0x19(%rbp),%edx
    139d:	48 8b 45 d8          	mov    -0x28(%rbp),%rax
    13a1:	48 01 d0             	add    %rdx,%rax
    13a4:	0f b6 4d e7          	movzbl -0x19(%rbp),%ecx
    13a8:	48 8b 55 f0          	mov    -0x10(%rbp),%rdx
    13ac:	48 01 ca             	add    %rcx,%rdx
    13af:	0f b6 00             	movzbl (%rax),%eax
    13b2:	88 02                	mov    %al,(%rdx)
    13b4:	0f b6 45 e7          	movzbl -0x19(%rbp),%eax
    13b8:	83 c0 01             	add    $0x1,%eax
    13bb:	88 45 e7             	mov    %al,-0x19(%rbp)
    13be:	0f b6 45 e7          	movzbl -0x19(%rbp),%eax
    13c2:	48 3b 45 c8          	cmp    -0x38(%rbp),%rax
    13c6:	72 d1                	jb     1399 <my_memmove+0xbb>
    13c8:	c6 45 e7 00          	movb   $0x0,-0x19(%rbp)
    13cc:	eb 25                	jmp    13f3 <my_memmove+0x115>
    13ce:	0f b6 55 e7          	movzbl -0x19(%rbp),%edx
    13d2:	48 8b 45 f0          	mov    -0x10(%rbp),%rax
    13d6:	48 01 d0             	add    %rdx,%rax
    13d9:	0f b6 4d e7          	movzbl -0x19(%rbp),%ecx
    13dd:	48 8b 55 d0          	mov    -0x30(%rbp),%rdx
    13e1:	48 01 ca             	add    %rcx,%rdx
    13e4:	0f b6 00             	movzbl (%rax),%eax
    13e7:	88 02                	mov    %al,(%rdx)
    13e9:	0f b6 45 e7          	movzbl -0x19(%rbp),%eax
    13ed:	83 c0 01             	add    $0x1,%eax
    13f0:	88 45 e7             	mov    %al,-0x19(%rbp)
    13f3:	0f b6 45 e7          	movzbl -0x19(%rbp),%eax
    13f7:	48 3b 45 c8          	cmp    -0x38(%rbp),%rax
    13fb:	72 d1                	jb     13ce <my_memmove+0xf0>
    13fd:	48 8b 45 d0          	mov    -0x30(%rbp),%rax
    1401:	48 89 f4             	mov    %rsi,%rsp
    1404:	48 8b 55 f8          	mov    -0x8(%rbp),%rdx
    1408:	64 48 2b 14 25 28 00 	sub    %fs:0x28,%rdx
    140f:	00 00 
    1411:	74 05                	je     1418 <my_memmove+0x13a>
    1413:	e8 b8 fc ff ff       	call   10d0 <__stack_chk_fail@plt>
    1418:	c9                   	leave
    1419:	c3                   	ret

000000000000141a <my_memcopy>:
    141a:	f3 0f 1e fa          	endbr64
    141e:	55                   	push   %rbp
    141f:	48 89 e5             	mov    %rsp,%rbp
    1422:	48 89 7d e8          	mov    %rdi,-0x18(%rbp)
    1426:	48 89 75 e0          	mov    %rsi,-0x20(%rbp)
    142a:	48 89 55 d8          	mov    %rdx,-0x28(%rbp)
    142e:	c6 45 ff 00          	movb   $0x0,-0x1(%rbp)
    1432:	eb 25                	jmp    1459 <my_memcopy+0x3f>
    1434:	0f b6 55 ff          	movzbl -0x1(%rbp),%edx
    1438:	48 8b 45 e8          	mov    -0x18(%rbp),%rax
    143c:	48 01 d0             	add    %rdx,%rax
    143f:	0f b6 4d ff          	movzbl -0x1(%rbp),%ecx
    1443:	48 8b 55 e0          	mov    -0x20(%rbp),%rdx
    1447:	48 01 ca             	add    %rcx,%rdx
    144a:	0f b6 00             	movzbl (%rax),%eax
    144d:	88 02                	mov    %al,(%rdx)
    144f:	0f b6 45 ff          	movzbl -0x1(%rbp),%eax
    1453:	83 c0 01             	add    $0x1,%eax
    1456:	88 45 ff             	mov    %al,-0x1(%rbp)
    1459:	0f b6 45 ff          	movzbl -0x1(%rbp),%eax
    145d:	48 3b 45 d8          	cmp    -0x28(%rbp),%rax
    1461:	72 d1                	jb     1434 <my_memcopy+0x1a>
    1463:	48 8b 45 e0          	mov    -0x20(%rbp),%rax
    1467:	5d                   	pop    %rbp
    1468:	c3                   	ret

0000000000001469 <my_memset>:
    1469:	f3 0f 1e fa          	endbr64
    146d:	55                   	push   %rbp
    146e:	48 89 e5             	mov    %rsp,%rbp
    1471:	48 89 7d e8          	mov    %rdi,-0x18(%rbp)
    1475:	48 89 75 e0          	mov    %rsi,-0x20(%rbp)
    1479:	89 d0                	mov    %edx,%eax
    147b:	88 45 dc             	mov    %al,-0x24(%rbp)
    147e:	c6 45 ff 00          	movb   $0x0,-0x1(%rbp)
    1482:	eb 1b                	jmp    149f <my_memset+0x36>
    1484:	0f b6 55 ff          	movzbl -0x1(%rbp),%edx
    1488:	48 8b 45 e8          	mov    -0x18(%rbp),%rax
    148c:	48 01 c2             	add    %rax,%rdx
    148f:	0f b6 45 dc          	movzbl -0x24(%rbp),%eax
    1493:	88 02                	mov    %al,(%rdx)
    1495:	0f b6 45 ff          	movzbl -0x1(%rbp),%eax
    1499:	83 c0 01             	add    $0x1,%eax
    149c:	88 45 ff             	mov    %al,-0x1(%rbp)
    149f:	0f b6 45 ff          	movzbl -0x1(%rbp),%eax
    14a3:	48 3b 45 e0          	cmp    -0x20(%rbp),%rax
    14a7:	72 db                	jb     1484 <my_memset+0x1b>
    14a9:	48 8b 45 e8          	mov    -0x18(%rbp),%rax
    14ad:	5d                   	pop    %rbp
    14ae:	c3                   	ret

00000000000014af <my_memzero>:
    14af:	f3 0f 1e fa          	endbr64
    14b3:	55                   	push   %rbp
    14b4:	48 89 e5             	mov    %rsp,%rbp
    14b7:	48 89 7d e8          	mov    %rdi,-0x18(%rbp)
    14bb:	48 89 75 e0          	mov    %rsi,-0x20(%rbp)
    14bf:	c6 45 ff 00          	movb   $0x0,-0x1(%rbp)
    14c3:	eb 18                	jmp    14dd <my_memzero+0x2e>
    14c5:	0f b6 55 ff          	movzbl -0x1(%rbp),%edx
    14c9:	48 8b 45 e8          	mov    -0x18(%rbp),%rax
    14cd:	48 01 d0             	add    %rdx,%rax
    14d0:	c6 00 00             	movb   $0x0,(%rax)
    14d3:	0f b6 45 ff          	movzbl -0x1(%rbp),%eax
    14d7:	83 c0 01             	add    $0x1,%eax
    14da:	88 45 ff             	mov    %al,-0x1(%rbp)
    14dd:	0f b6 45 ff          	movzbl -0x1(%rbp),%eax
    14e1:	48 3b 45 e0          	cmp    -0x20(%rbp),%rax
    14e5:	72 de                	jb     14c5 <my_memzero+0x16>
    14e7:	48 8b 45 e8          	mov    -0x18(%rbp),%rax
    14eb:	5d                   	pop    %rbp
    14ec:	c3                   	ret

00000000000014ed <my_reverse>:
    14ed:	f3 0f 1e fa          	endbr64
    14f1:	55                   	push   %rbp
    14f2:	48 89 e5             	mov    %rsp,%rbp
    14f5:	48 89 7d e8          	mov    %rdi,-0x18(%rbp)
    14f9:	48 89 75 e0          	mov    %rsi,-0x20(%rbp)
    14fd:	48 8b 45 e0          	mov    -0x20(%rbp),%rax
    1501:	48 d1 e8             	shr    $1,%rax
    1504:	88 45 fe             	mov    %al,-0x2(%rbp)
    1507:	c6 45 fd 00          	movb   $0x0,-0x3(%rbp)
    150b:	eb 5d                	jmp    156a <my_reverse+0x7d>
    150d:	0f b6 55 fd          	movzbl -0x3(%rbp),%edx
    1511:	48 8b 45 e8          	mov    -0x18(%rbp),%rax
    1515:	48 01 d0             	add    %rdx,%rax
    1518:	0f b6 00             	movzbl (%rax),%eax
    151b:	88 45 ff             	mov    %al,-0x1(%rbp)
    151e:	0f b6 45 fd          	movzbl -0x3(%rbp),%eax
    1522:	48 8b 55 e0          	mov    -0x20(%rbp),%rdx
    1526:	48 29 c2             	sub    %rax,%rdx
    1529:	48 83 ea 01          	sub    $0x1,%rdx
    152d:	48 8b 45 e8          	mov    -0x18(%rbp),%rax
    1531:	48 01 d0             	add    %rdx,%rax
    1534:	0f b6 4d fd          	movzbl -0x3(%rbp),%ecx
    1538:	48 8b 55 e8          	mov    -0x18(%rbp),%rdx
    153c:	48 01 ca             	add    %rcx,%rdx
    153f:	0f b6 00             	movzbl (%rax),%eax
    1542:	88 02                	mov    %al,(%rdx)
    1544:	0f b6 45 fd          	movzbl -0x3(%rbp),%eax
    1548:	48 8b 55 e0          	mov    -0x20(%rbp),%rdx
    154c:	48 29 c2             	sub    %rax,%rdx
    154f:	48 83 ea 01          	sub    $0x1,%rdx
    1553:	48 8b 45 e8          	mov    -0x18(%rbp),%rax
    1557:	48 01 c2             	add    %rax,%rdx
    155a:	0f b6 45 ff          	movzbl -0x1(%rbp),%eax
    155e:	88 02                	mov    %al,(%rdx)
    1560:	0f b6 45 fd          	movzbl -0x3(%rbp),%eax
    1564:	83 c0 01             	add    $0x1,%eax
    1567:	88 45 fd             	mov    %al,-0x3(%rbp)
    156a:	0f b6 45 fd          	movzbl -0x3(%rbp),%eax
    156e:	3a 45 fe             	cmp    -0x2(%rbp),%al
    1571:	72 9a                	jb     150d <my_reverse+0x20>
    1573:	48 8b 45 e8          	mov    -0x18(%rbp),%rax
    1577:	5d                   	pop    %rbp
    1578:	c3                   	ret

0000000000001579 <reserve_words>:
    1579:	f3 0f 1e fa          	endbr64
    157d:	55                   	push   %rbp
    157e:	48 89 e5             	mov    %rsp,%rbp
    1581:	48 83 ec 20          	sub    $0x20,%rsp
    1585:	48 89 7d e8          	mov    %rdi,-0x18(%rbp)
    1589:	48 83 7d e8 00       	cmpq   $0x0,-0x18(%rbp)
    158e:	74 1a                	je     15aa <reserve_words+0x31>
    1590:	48 8b 45 e8          	mov    -0x18(%rbp),%rax
    1594:	48 c1 e0 02          	shl    $0x2,%rax
    1598:	48 89 c7             	mov    %rax,%rdi
    159b:	e8 50 fb ff ff       	call   10f0 <malloc@plt>
    15a0:	48 89 45 f8          	mov    %rax,-0x8(%rbp)
    15a4:	48 8b 45 f8          	mov    -0x8(%rbp),%rax
    15a8:	eb 05                	jmp    15af <reserve_words+0x36>
    15aa:	b8 00 00 00 00       	mov    $0x0,%eax
    15af:	c9                   	leave
    15b0:	c3                   	ret

00000000000015b1 <free_words>:
    15b1:	f3 0f 1e fa          	endbr64
    15b5:	55                   	push   %rbp
    15b6:	48 89 e5             	mov    %rsp,%rbp
    15b9:	48 83 ec 10          	sub    $0x10,%rsp
    15bd:	48 89 7d f8          	mov    %rdi,-0x8(%rbp)
    15c1:	48 8b 45 f8          	mov    -0x8(%rbp),%rax
    15c5:	48 89 c7             	mov    %rax,%rdi
    15c8:	e8 d3 fa ff ff       	call   10a0 <free@plt>
    15cd:	90                   	nop
    15ce:	c9                   	leave
    15cf:	c3                   	ret

00000000000015d0 <print_statistics>:
    15d0:	f3 0f 1e fa          	endbr64
    15d4:	55                   	push   %rbp
    15d5:	48 89 e5             	mov    %rsp,%rbp
    15d8:	48 83 ec 10          	sub    $0x10,%rsp
    15dc:	89 c8                	mov    %ecx,%eax
    15de:	89 f9                	mov    %edi,%ecx
    15e0:	88 4d fc             	mov    %cl,-0x4(%rbp)
    15e3:	89 f1                	mov    %esi,%ecx
    15e5:	88 4d f8             	mov    %cl,-0x8(%rbp)
    15e8:	88 55 f4             	mov    %dl,-0xc(%rbp)
    15eb:	88 45 f0             	mov    %al,-0x10(%rbp)
    15ee:	0f b6 45 fc          	movzbl -0x4(%rbp),%eax
    15f2:	89 c6                	mov    %eax,%esi
    15f4:	48 8d 05 09 1a 00 00 	lea    0x1a09(%rip),%rax        # 3004 <_IO_stdin_used+0x4>
    15fb:	48 89 c7             	mov    %rax,%rdi
    15fe:	b8 00 00 00 00       	mov    $0x0,%eax
    1603:	e8 d8 fa ff ff       	call   10e0 <printf@plt>
    1608:	0f b6 45 f8          	movzbl -0x8(%rbp),%eax
    160c:	89 c6                	mov    %eax,%esi
    160e:	48 8d 05 05 1a 00 00 	lea    0x1a05(%rip),%rax        # 301a <_IO_stdin_used+0x1a>
    1615:	48 89 c7             	mov    %rax,%rdi
    1618:	b8 00 00 00 00       	mov    $0x0,%eax
    161d:	e8 be fa ff ff       	call   10e0 <printf@plt>
    1622:	0f b6 45 f4          	movzbl -0xc(%rbp),%eax
    1626:	89 c6                	mov    %eax,%esi
    1628:	48 8d 05 01 1a 00 00 	lea    0x1a01(%rip),%rax        # 3030 <_IO_stdin_used+0x30>
    162f:	48 89 c7             	mov    %rax,%rdi
    1632:	b8 00 00 00 00       	mov    $0x0,%eax
    1637:	e8 a4 fa ff ff       	call   10e0 <printf@plt>
    163c:	0f b6 45 f0          	movzbl -0x10(%rbp),%eax
    1640:	89 c6                	mov    %eax,%esi
    1642:	48 8d 05 fa 19 00 00 	lea    0x19fa(%rip),%rax        # 3043 <_IO_stdin_used+0x43>
    1649:	48 89 c7             	mov    %rax,%rdi
    164c:	b8 00 00 00 00       	mov    $0x0,%eax
    1651:	e8 8a fa ff ff       	call   10e0 <printf@plt>
    1656:	90                   	nop
    1657:	c9                   	leave
    1658:	c3                   	ret

0000000000001659 <print_array>:
    1659:	f3 0f 1e fa          	endbr64
    165d:	55                   	push   %rbp
    165e:	48 89 e5             	mov    %rsp,%rbp
    1661:	48 83 ec 20          	sub    $0x20,%rsp
    1665:	48 89 7d e8          	mov    %rdi,-0x18(%rbp)
    1669:	89 75 e4             	mov    %esi,-0x1c(%rbp)
    166c:	48 83 7d e8 00       	cmpq   $0x0,-0x18(%rbp)
    1671:	75 11                	jne    1684 <print_array+0x2b>
    1673:	48 8d 05 de 19 00 00 	lea    0x19de(%rip),%rax        # 3058 <_IO_stdin_used+0x58>
    167a:	48 89 c7             	mov    %rax,%rdi
    167d:	e8 3e fa ff ff       	call   10c0 <puts@plt>
    1682:	eb 70                	jmp    16f4 <print_array+0x9b>
    1684:	83 7d e4 00          	cmpl   $0x0,-0x1c(%rbp)
    1688:	75 11                	jne    169b <print_array+0x42>
    168a:	48 8d 05 e2 19 00 00 	lea    0x19e2(%rip),%rax        # 3073 <_IO_stdin_used+0x73>
    1691:	48 89 c7             	mov    %rax,%rdi
    1694:	e8 27 fa ff ff       	call   10c0 <puts@plt>
    1699:	eb 59                	jmp    16f4 <print_array+0x9b>
    169b:	c7 45 fc 00 00 00 00 	movl   $0x0,-0x4(%rbp)
    16a2:	eb 3e                	jmp    16e2 <print_array+0x89>
    16a4:	8b 45 fc             	mov    -0x4(%rbp),%eax
    16a7:	83 e0 07             	and    $0x7,%eax
    16aa:	85 c0                	test   %eax,%eax
    16ac:	75 0a                	jne    16b8 <print_array+0x5f>
    16ae:	bf 0a 00 00 00       	mov    $0xa,%edi
    16b3:	e8 f8 f9 ff ff       	call   10b0 <putchar@plt>
    16b8:	8b 55 fc             	mov    -0x4(%rbp),%edx
    16bb:	48 8b 45 e8          	mov    -0x18(%rbp),%rax
    16bf:	48 01 d0             	add    %rdx,%rax
    16c2:	0f b6 00             	movzbl (%rax),%eax
    16c5:	0f b6 c0             	movzbl %al,%eax
    16c8:	89 c6                	mov    %eax,%esi
    16ca:	48 8d 05 b8 19 00 00 	lea    0x19b8(%rip),%rax        # 3089 <_IO_stdin_used+0x89>
    16d1:	48 89 c7             	mov    %rax,%rdi
    16d4:	b8 00 00 00 00       	mov    $0x0,%eax
    16d9:	e8 02 fa ff ff       	call   10e0 <printf@plt>
    16de:	83 45 fc 01          	addl   $0x1,-0x4(%rbp)
    16e2:	8b 45 fc             	mov    -0x4(%rbp),%eax
    16e5:	3b 45 e4             	cmp    -0x1c(%rbp),%eax
    16e8:	72 ba                	jb     16a4 <print_array+0x4b>
    16ea:	bf 0a 00 00 00       	mov    $0xa,%edi
    16ef:	e8 bc f9 ff ff       	call   10b0 <putchar@plt>
    16f4:	c9                   	leave
    16f5:	c3                   	ret

00000000000016f6 <find_median>:
    16f6:	f3 0f 1e fa          	endbr64
    16fa:	55                   	push   %rbp
    16fb:	48 89 e5             	mov    %rsp,%rbp
    16fe:	48 83 ec 10          	sub    $0x10,%rsp
    1702:	48 89 7d f8          	mov    %rdi,-0x8(%rbp)
    1706:	89 75 f4             	mov    %esi,-0xc(%rbp)
    1709:	48 83 7d f8 00       	cmpq   $0x0,-0x8(%rbp)
    170e:	75 16                	jne    1726 <find_median+0x30>
    1710:	48 8d 05 41 19 00 00 	lea    0x1941(%rip),%rax        # 3058 <_IO_stdin_used+0x58>
    1717:	48 89 c7             	mov    %rax,%rdi
    171a:	e8 a1 f9 ff ff       	call   10c0 <puts@plt>
    171f:	b8 ff ff ff ff       	mov    $0xffffffff,%eax
    1724:	eb 5b                	jmp    1781 <find_median+0x8b>
    1726:	83 7d f4 00          	cmpl   $0x0,-0xc(%rbp)
    172a:	75 16                	jne    1742 <find_median+0x4c>
    172c:	48 8d 05 40 19 00 00 	lea    0x1940(%rip),%rax        # 3073 <_IO_stdin_used+0x73>
    1733:	48 89 c7             	mov    %rax,%rdi
    1736:	e8 85 f9 ff ff       	call   10c0 <puts@plt>
    173b:	b8 ff ff ff ff       	mov    $0xffffffff,%eax
    1740:	eb 3f                	jmp    1781 <find_median+0x8b>
    1742:	8b 45 f4             	mov    -0xc(%rbp),%eax
    1745:	83 e0 01             	and    $0x1,%eax
    1748:	85 c0                	test   %eax,%eax
    174a:	75 13                	jne    175f <find_median+0x69>
    174c:	8b 45 f4             	mov    -0xc(%rbp),%eax
    174f:	d1 e8                	shr    $1,%eax
    1751:	89 c2                	mov    %eax,%edx
    1753:	48 8b 45 f8          	mov    -0x8(%rbp),%rax
    1757:	48 01 d0             	add    %rdx,%rax
    175a:	0f b6 00             	movzbl (%rax),%eax
    175d:	eb 22                	jmp    1781 <find_median+0x8b>
    175f:	8b 45 f4             	mov    -0xc(%rbp),%eax
    1762:	d1 e8                	shr    $1,%eax
    1764:	89 c2                	mov    %eax,%edx
    1766:	48 8b 45 f8          	mov    -0x8(%rbp),%rax
    176a:	48 01 d0             	add    %rdx,%rax
    176d:	0f b6 00             	movzbl (%rax),%eax
    1770:	0f b6 c0             	movzbl %al,%eax
    1773:	01 c0                	add    %eax,%eax
    1775:	83 c0 01             	add    $0x1,%eax
    1778:	89 c2                	mov    %eax,%edx
    177a:	c1 ea 1f             	shr    $0x1f,%edx
    177d:	01 d0                	add    %edx,%eax
    177f:	d1 f8                	sar    $1,%eax
    1781:	c9                   	leave
    1782:	c3                   	ret

0000000000001783 <find_mean>:
    1783:	f3 0f 1e fa          	endbr64
    1787:	55                   	push   %rbp
    1788:	48 89 e5             	mov    %rsp,%rbp
    178b:	48 83 ec 20          	sub    $0x20,%rsp
    178f:	48 89 7d e8          	mov    %rdi,-0x18(%rbp)
    1793:	89 75 e4             	mov    %esi,-0x1c(%rbp)
    1796:	c7 45 f8 00 00 00 00 	movl   $0x0,-0x8(%rbp)
    179d:	48 83 7d e8 00       	cmpq   $0x0,-0x18(%rbp)
    17a2:	75 16                	jne    17ba <find_mean+0x37>
    17a4:	48 8d 05 ad 18 00 00 	lea    0x18ad(%rip),%rax        # 3058 <_IO_stdin_used+0x58>
    17ab:	48 89 c7             	mov    %rax,%rdi
    17ae:	e8 0d f9 ff ff       	call   10c0 <puts@plt>
    17b3:	b8 ff ff ff ff       	mov    $0xffffffff,%eax
    17b8:	eb 40                	jmp    17fa <find_mean+0x77>
    17ba:	83 7d e4 00          	cmpl   $0x0,-0x1c(%rbp)
    17be:	75 07                	jne    17c7 <find_mean+0x44>
    17c0:	c7 45 e4 01 00 00 00 	movl   $0x1,-0x1c(%rbp)
    17c7:	c7 45 fc 00 00 00 00 	movl   $0x0,-0x4(%rbp)
    17ce:	eb 17                	jmp    17e7 <find_mean+0x64>
    17d0:	8b 55 fc             	mov    -0x4(%rbp),%edx
    17d3:	48 8b 45 e8          	mov    -0x18(%rbp),%rax
    17d7:	48 01 d0             	add    %rdx,%rax
    17da:	0f b6 00             	movzbl (%rax),%eax
    17dd:	0f b6 c0             	movzbl %al,%eax
    17e0:	01 45 f8             	add    %eax,-0x8(%rbp)
    17e3:	83 45 fc 01          	addl   $0x1,-0x4(%rbp)
    17e7:	8b 45 fc             	mov    -0x4(%rbp),%eax
    17ea:	3b 45 e4             	cmp    -0x1c(%rbp),%eax
    17ed:	72 e1                	jb     17d0 <find_mean+0x4d>
    17ef:	8b 45 f8             	mov    -0x8(%rbp),%eax
    17f2:	ba 00 00 00 00       	mov    $0x0,%edx
    17f7:	f7 75 e4             	divl   -0x1c(%rbp)
    17fa:	c9                   	leave
    17fb:	c3                   	ret

00000000000017fc <find_maximum>:
    17fc:	f3 0f 1e fa          	endbr64
    1800:	55                   	push   %rbp
    1801:	48 89 e5             	mov    %rsp,%rbp
    1804:	48 83 ec 20          	sub    $0x20,%rsp
    1808:	48 89 7d e8          	mov    %rdi,-0x18(%rbp)
    180c:	89 75 e4             	mov    %esi,-0x1c(%rbp)
    180f:	48 83 7d e8 00       	cmpq   $0x0,-0x18(%rbp)
    1814:	75 16                	jne    182c <find_maximum+0x30>
    1816:	48 8d 05 3b 18 00 00 	lea    0x183b(%rip),%rax        # 3058 <_IO_stdin_used+0x58>
    181d:	48 89 c7             	mov    %rax,%rdi
    1820:	e8 9b f8 ff ff       	call   10c0 <puts@plt>
    1825:	b8 ff ff ff ff       	mov    $0xffffffff,%eax
    182a:	eb 69                	jmp    1895 <find_maximum+0x99>
    182c:	83 7d e4 00          	cmpl   $0x0,-0x1c(%rbp)
    1830:	75 16                	jne    1848 <find_maximum+0x4c>
    1832:	48 8d 05 3a 18 00 00 	lea    0x183a(%rip),%rax        # 3073 <_IO_stdin_used+0x73>
    1839:	48 89 c7             	mov    %rax,%rdi
    183c:	e8 7f f8 ff ff       	call   10c0 <puts@plt>
    1841:	b8 ff ff ff ff       	mov    $0xffffffff,%eax
    1846:	eb 4d                	jmp    1895 <find_maximum+0x99>
    1848:	48 8b 45 e8          	mov    -0x18(%rbp),%rax
    184c:	0f b6 00             	movzbl (%rax),%eax
    184f:	0f b6 c0             	movzbl %al,%eax
    1852:	89 45 f8             	mov    %eax,-0x8(%rbp)
    1855:	c7 45 fc 00 00 00 00 	movl   $0x0,-0x4(%rbp)
    185c:	eb 2c                	jmp    188a <find_maximum+0x8e>
    185e:	8b 55 fc             	mov    -0x4(%rbp),%edx
    1861:	48 8b 45 e8          	mov    -0x18(%rbp),%rax
    1865:	48 01 d0             	add    %rdx,%rax
    1868:	0f b6 00             	movzbl (%rax),%eax
    186b:	0f b6 c0             	movzbl %al,%eax
    186e:	39 45 f8             	cmp    %eax,-0x8(%rbp)
    1871:	73 13                	jae    1886 <find_maximum+0x8a>
    1873:	8b 55 fc             	mov    -0x4(%rbp),%edx
    1876:	48 8b 45 e8          	mov    -0x18(%rbp),%rax
    187a:	48 01 d0             	add    %rdx,%rax
    187d:	0f b6 00             	movzbl (%rax),%eax
    1880:	0f b6 c0             	movzbl %al,%eax
    1883:	89 45 f8             	mov    %eax,-0x8(%rbp)
    1886:	83 45 fc 01          	addl   $0x1,-0x4(%rbp)
    188a:	8b 45 fc             	mov    -0x4(%rbp),%eax
    188d:	3b 45 e4             	cmp    -0x1c(%rbp),%eax
    1890:	72 cc                	jb     185e <find_maximum+0x62>
    1892:	8b 45 f8             	mov    -0x8(%rbp),%eax
    1895:	c9                   	leave
    1896:	c3                   	ret

0000000000001897 <find_minimum>:
    1897:	f3 0f 1e fa          	endbr64
    189b:	55                   	push   %rbp
    189c:	48 89 e5             	mov    %rsp,%rbp
    189f:	48 83 ec 20          	sub    $0x20,%rsp
    18a3:	48 89 7d e8          	mov    %rdi,-0x18(%rbp)
    18a7:	89 75 e4             	mov    %esi,-0x1c(%rbp)
    18aa:	48 83 7d e8 00       	cmpq   $0x0,-0x18(%rbp)
    18af:	75 16                	jne    18c7 <find_minimum+0x30>
    18b1:	48 8d 05 a0 17 00 00 	lea    0x17a0(%rip),%rax        # 3058 <_IO_stdin_used+0x58>
    18b8:	48 89 c7             	mov    %rax,%rdi
    18bb:	e8 00 f8 ff ff       	call   10c0 <puts@plt>
    18c0:	b8 ff ff ff ff       	mov    $0xffffffff,%eax
    18c5:	eb 69                	jmp    1930 <find_minimum+0x99>
    18c7:	83 7d e4 00          	cmpl   $0x0,-0x1c(%rbp)
    18cb:	75 16                	jne    18e3 <find_minimum+0x4c>
    18cd:	48 8d 05 9f 17 00 00 	lea    0x179f(%rip),%rax        # 3073 <_IO_stdin_used+0x73>
    18d4:	48 89 c7             	mov    %rax,%rdi
    18d7:	e8 e4 f7 ff ff       	call   10c0 <puts@plt>
    18dc:	b8 ff ff ff ff       	mov    $0xffffffff,%eax
    18e1:	eb 4d                	jmp    1930 <find_minimum+0x99>
    18e3:	48 8b 45 e8          	mov    -0x18(%rbp),%rax
    18e7:	0f b6 00             	movzbl (%rax),%eax
    18ea:	0f b6 c0             	movzbl %al,%eax
    18ed:	89 45 f8             	mov    %eax,-0x8(%rbp)
    18f0:	c7 45 fc 00 00 00 00 	movl   $0x0,-0x4(%rbp)
    18f7:	eb 2c                	jmp    1925 <find_minimum+0x8e>
    18f9:	8b 55 fc             	mov    -0x4(%rbp),%edx
    18fc:	48 8b 45 e8          	mov    -0x18(%rbp),%rax
    1900:	48 01 d0             	add    %rdx,%rax
    1903:	0f b6 00             	movzbl (%rax),%eax
    1906:	0f b6 c0             	movzbl %al,%eax
    1909:	3b 45 f8             	cmp    -0x8(%rbp),%eax
    190c:	73 13                	jae    1921 <find_minimum+0x8a>
    190e:	8b 55 fc             	mov    -0x4(%rbp),%edx
    1911:	48 8b 45 e8          	mov    -0x18(%rbp),%rax
    1915:	48 01 d0             	add    %rdx,%rax
    1918:	0f b6 00             	movzbl (%rax),%eax
    191b:	0f b6 c0             	movzbl %al,%eax
    191e:	89 45 f8             	mov    %eax,-0x8(%rbp)
    1921:	83 45 fc 01          	addl   $0x1,-0x4(%rbp)
    1925:	8b 45 fc             	mov    -0x4(%rbp),%eax
    1928:	3b 45 e4             	cmp    -0x1c(%rbp),%eax
    192b:	72 cc                	jb     18f9 <find_minimum+0x62>
    192d:	8b 45 f8             	mov    -0x8(%rbp),%eax
    1930:	c9                   	leave
    1931:	c3                   	ret

0000000000001932 <sort_array>:
    1932:	f3 0f 1e fa          	endbr64
    1936:	55                   	push   %rbp
    1937:	48 89 e5             	mov    %rsp,%rbp
    193a:	48 83 ec 20          	sub    $0x20,%rsp
    193e:	48 89 7d e8          	mov    %rdi,-0x18(%rbp)
    1942:	89 75 e4             	mov    %esi,-0x1c(%rbp)
    1945:	48 83 7d e8 00       	cmpq   $0x0,-0x18(%rbp)
    194a:	75 14                	jne    1960 <sort_array+0x2e>
    194c:	48 8d 05 05 17 00 00 	lea    0x1705(%rip),%rax        # 3058 <_IO_stdin_used+0x58>
    1953:	48 89 c7             	mov    %rax,%rdi
    1956:	e8 65 f7 ff ff       	call   10c0 <puts@plt>
    195b:	e9 bc 00 00 00       	jmp    1a1c <sort_array+0xea>
    1960:	83 7d e4 00          	cmpl   $0x0,-0x1c(%rbp)
    1964:	75 14                	jne    197a <sort_array+0x48>
    1966:	48 8d 05 06 17 00 00 	lea    0x1706(%rip),%rax        # 3073 <_IO_stdin_used+0x73>
    196d:	48 89 c7             	mov    %rax,%rdi
    1970:	e8 4b f7 ff ff       	call   10c0 <puts@plt>
    1975:	e9 a2 00 00 00       	jmp    1a1c <sort_array+0xea>
    197a:	c7 45 f4 00 00 00 00 	movl   $0x0,-0xc(%rbp)
    1981:	e9 87 00 00 00       	jmp    1a0d <sort_array+0xdb>
    1986:	c7 45 f8 00 00 00 00 	movl   $0x0,-0x8(%rbp)
    198d:	eb 6c                	jmp    19fb <sort_array+0xc9>
    198f:	8b 45 f8             	mov    -0x8(%rbp),%eax
    1992:	83 c0 01             	add    $0x1,%eax
    1995:	89 c2                	mov    %eax,%edx
    1997:	48 8b 45 e8          	mov    -0x18(%rbp),%rax
    199b:	48 01 d0             	add    %rdx,%rax
    199e:	0f b6 00             	movzbl (%rax),%eax
    19a1:	8b 4d f8             	mov    -0x8(%rbp),%ecx
    19a4:	48 8b 55 e8          	mov    -0x18(%rbp),%rdx
    19a8:	48 01 ca             	add    %rcx,%rdx
    19ab:	0f b6 12             	movzbl (%rdx),%edx
    19ae:	38 c2                	cmp    %al,%dl
    19b0:	73 45                	jae    19f7 <sort_array+0xc5>
    19b2:	8b 45 f8             	mov    -0x8(%rbp),%eax
    19b5:	83 c0 01             	add    $0x1,%eax
    19b8:	89 c2                	mov    %eax,%edx
    19ba:	48 8b 45 e8          	mov    -0x18(%rbp),%rax
    19be:	48 01 d0             	add    %rdx,%rax
    19c1:	0f b6 00             	movzbl (%rax),%eax
    19c4:	0f b6 c0             	movzbl %al,%eax
    19c7:	89 45 fc             	mov    %eax,-0x4(%rbp)
    19ca:	8b 55 f8             	mov    -0x8(%rbp),%edx
    19cd:	48 8b 45 e8          	mov    -0x18(%rbp),%rax
    19d1:	48 01 d0             	add    %rdx,%rax
    19d4:	8b 55 f8             	mov    -0x8(%rbp),%edx
    19d7:	83 c2 01             	add    $0x1,%edx
    19da:	89 d1                	mov    %edx,%ecx
    19dc:	48 8b 55 e8          	mov    -0x18(%rbp),%rdx
    19e0:	48 01 ca             	add    %rcx,%rdx
    19e3:	0f b6 00             	movzbl (%rax),%eax
    19e6:	88 02                	mov    %al,(%rdx)
    19e8:	8b 55 f8             	mov    -0x8(%rbp),%edx
    19eb:	48 8b 45 e8          	mov    -0x18(%rbp),%rax
    19ef:	48 01 d0             	add    %rdx,%rax
    19f2:	8b 55 fc             	mov    -0x4(%rbp),%edx
    19f5:	88 10                	mov    %dl,(%rax)
    19f7:	83 45 f8 01          	addl   $0x1,-0x8(%rbp)
    19fb:	8b 45 e4             	mov    -0x1c(%rbp),%eax
    19fe:	2b 45 f4             	sub    -0xc(%rbp),%eax
    1a01:	83 e8 01             	sub    $0x1,%eax
    1a04:	39 45 f8             	cmp    %eax,-0x8(%rbp)
    1a07:	72 86                	jb     198f <sort_array+0x5d>
    1a09:	83 45 f4 01          	addl   $0x1,-0xc(%rbp)
    1a0d:	8b 45 e4             	mov    -0x1c(%rbp),%eax
    1a10:	83 e8 01             	sub    $0x1,%eax
    1a13:	39 45 f4             	cmp    %eax,-0xc(%rbp)
    1a16:	0f 82 6a ff ff ff    	jb     1986 <sort_array+0x54>
    1a1c:	c9                   	leave
    1a1d:	c3                   	ret

0000000000001a1e <test_data1>:
    1a1e:	f3 0f 1e fa          	endbr64
    1a22:	55                   	push   %rbp
    1a23:	48 89 e5             	mov    %rsp,%rbp
    1a26:	48 83 ec 20          	sub    $0x20,%rsp
    1a2a:	c7 45 ec 00 f0 ff ff 	movl   $0xfffff000,-0x14(%rbp)
    1a31:	48 8d 05 58 16 00 00 	lea    0x1658(%rip),%rax        # 3090 <_IO_stdin_used+0x90>
    1a38:	48 89 c7             	mov    %rax,%rdi
    1a3b:	e8 80 f6 ff ff       	call   10c0 <puts@plt>
    1a40:	bf 0a 00 00 00       	mov    $0xa,%edi
    1a45:	e8 2f fb ff ff       	call   1579 <reserve_words>
    1a4a:	48 89 45 f8          	mov    %rax,-0x8(%rbp)
    1a4e:	48 83 7d f8 00       	cmpq   $0x0,-0x8(%rbp)
    1a53:	75 0a                	jne    1a5f <test_data1+0x41>
    1a55:	b8 01 00 00 00       	mov    $0x1,%eax
    1a5a:	e9 8a 00 00 00       	jmp    1ae9 <test_data1+0xcb>
    1a5f:	48 8b 4d f8          	mov    -0x8(%rbp),%rcx
    1a63:	8b 45 ec             	mov    -0x14(%rbp),%eax
    1a66:	ba 10 00 00 00       	mov    $0x10,%edx
    1a6b:	48 89 ce             	mov    %rcx,%rsi
    1a6e:	89 c7                	mov    %eax,%edi
    1a70:	e8 c4 08 00 00       	call   2339 <my_itoa>
    1a75:	0f b6 c0             	movzbl %al,%eax
    1a78:	89 45 f0             	mov    %eax,-0x10(%rbp)
    1a7b:	8b 45 f0             	mov    -0x10(%rbp),%eax
    1a7e:	0f b6 c8             	movzbl %al,%ecx
    1a81:	48 8b 45 f8          	mov    -0x8(%rbp),%rax
    1a85:	ba 10 00 00 00       	mov    $0x10,%edx
    1a8a:	89 ce                	mov    %ecx,%esi
    1a8c:	48 89 c7             	mov    %rax,%rdi
    1a8f:	e8 a1 09 00 00       	call   2435 <my_atoi>
    1a94:	89 45 f4             	mov    %eax,-0xc(%rbp)
    1a97:	8b 45 ec             	mov    -0x14(%rbp),%eax
    1a9a:	89 c6                	mov    %eax,%esi
    1a9c:	48 8d 05 fc 15 00 00 	lea    0x15fc(%rip),%rax        # 309f <_IO_stdin_used+0x9f>
    1aa3:	48 89 c7             	mov    %rax,%rdi
    1aa6:	b8 00 00 00 00       	mov    $0x0,%eax
    1aab:	e8 30 f6 ff ff       	call   10e0 <printf@plt>
    1ab0:	8b 45 f4             	mov    -0xc(%rbp),%eax
    1ab3:	89 c6                	mov    %eax,%esi
    1ab5:	48 8d 05 f9 15 00 00 	lea    0x15f9(%rip),%rax        # 30b5 <_IO_stdin_used+0xb5>
    1abc:	48 89 c7             	mov    %rax,%rdi
    1abf:	b8 00 00 00 00       	mov    $0x0,%eax
    1ac4:	e8 17 f6 ff ff       	call   10e0 <printf@plt>
    1ac9:	48 8b 45 f8          	mov    -0x8(%rbp),%rax
    1acd:	48 89 c7             	mov    %rax,%rdi
    1ad0:	e8 dc fa ff ff       	call   15b1 <free_words>
    1ad5:	8b 45 f4             	mov    -0xc(%rbp),%eax
    1ad8:	3b 45 ec             	cmp    -0x14(%rbp),%eax
    1adb:	74 07                	je     1ae4 <test_data1+0xc6>
    1add:	b8 01 00 00 00       	mov    $0x1,%eax
    1ae2:	eb 05                	jmp    1ae9 <test_data1+0xcb>
    1ae4:	b8 00 00 00 00       	mov    $0x0,%eax
    1ae9:	c9                   	leave
    1aea:	c3                   	ret

0000000000001aeb <test_data2>:
    1aeb:	f3 0f 1e fa          	endbr64
    1aef:	55                   	push   %rbp
    1af0:	48 89 e5             	mov    %rsp,%rbp
    1af3:	48 83 ec 20          	sub    $0x20,%rsp
    1af7:	c7 45 ec 40 e2 01 00 	movl   $0x1e240,-0x14(%rbp)
    1afe:	48 8d 05 cc 15 00 00 	lea    0x15cc(%rip),%rax        # 30d1 <_IO_stdin_used+0xd1>
    1b05:	48 89 c7             	mov    %rax,%rdi
    1b08:	e8 b3 f5 ff ff       	call   10c0 <puts@plt>
    1b0d:	bf 0a 00 00 00       	mov    $0xa,%edi
    1b12:	e8 62 fa ff ff       	call   1579 <reserve_words>
    1b17:	48 89 45 f8          	mov    %rax,-0x8(%rbp)
    1b1b:	48 83 7d f8 00       	cmpq   $0x0,-0x8(%rbp)
    1b20:	75 0a                	jne    1b2c <test_data2+0x41>
    1b22:	b8 01 00 00 00       	mov    $0x1,%eax
    1b27:	e9 8a 00 00 00       	jmp    1bb6 <test_data2+0xcb>
    1b2c:	48 8b 4d f8          	mov    -0x8(%rbp),%rcx
    1b30:	8b 45 ec             	mov    -0x14(%rbp),%eax
    1b33:	ba 0a 00 00 00       	mov    $0xa,%edx
    1b38:	48 89 ce             	mov    %rcx,%rsi
    1b3b:	89 c7                	mov    %eax,%edi
    1b3d:	e8 f7 07 00 00       	call   2339 <my_itoa>
    1b42:	0f b6 c0             	movzbl %al,%eax
    1b45:	89 45 f0             	mov    %eax,-0x10(%rbp)
    1b48:	8b 45 f0             	mov    -0x10(%rbp),%eax
    1b4b:	0f b6 c8             	movzbl %al,%ecx
    1b4e:	48 8b 45 f8          	mov    -0x8(%rbp),%rax
    1b52:	ba 0a 00 00 00       	mov    $0xa,%edx
    1b57:	89 ce                	mov    %ecx,%esi
    1b59:	48 89 c7             	mov    %rax,%rdi
    1b5c:	e8 d4 08 00 00       	call   2435 <my_atoi>
    1b61:	89 45 f4             	mov    %eax,-0xc(%rbp)
    1b64:	8b 45 ec             	mov    -0x14(%rbp),%eax
    1b67:	89 c6                	mov    %eax,%esi
    1b69:	48 8d 05 6f 15 00 00 	lea    0x156f(%rip),%rax        # 30df <_IO_stdin_used+0xdf>
    1b70:	48 89 c7             	mov    %rax,%rdi
    1b73:	b8 00 00 00 00       	mov    $0x0,%eax
    1b78:	e8 63 f5 ff ff       	call   10e0 <printf@plt>
    1b7d:	8b 45 f4             	mov    -0xc(%rbp),%eax
    1b80:	89 c6                	mov    %eax,%esi
    1b82:	48 8d 05 2c 15 00 00 	lea    0x152c(%rip),%rax        # 30b5 <_IO_stdin_used+0xb5>
    1b89:	48 89 c7             	mov    %rax,%rdi
    1b8c:	b8 00 00 00 00       	mov    $0x0,%eax
    1b91:	e8 4a f5 ff ff       	call   10e0 <printf@plt>
    1b96:	48 8b 45 f8          	mov    -0x8(%rbp),%rax
    1b9a:	48 89 c7             	mov    %rax,%rdi
    1b9d:	e8 0f fa ff ff       	call   15b1 <free_words>
    1ba2:	8b 45 f4             	mov    -0xc(%rbp),%eax
    1ba5:	3b 45 ec             	cmp    -0x14(%rbp),%eax
    1ba8:	74 07                	je     1bb1 <test_data2+0xc6>
    1baa:	b8 01 00 00 00       	mov    $0x1,%eax
    1baf:	eb 05                	jmp    1bb6 <test_data2+0xcb>
    1bb1:	b8 00 00 00 00       	mov    $0x0,%eax
    1bb6:	c9                   	leave
    1bb7:	c3                   	ret

0000000000001bb8 <test_memmove1>:
    1bb8:	f3 0f 1e fa          	endbr64
    1bbc:	55                   	push   %rbp
    1bbd:	48 89 e5             	mov    %rsp,%rbp
    1bc0:	48 83 ec 20          	sub    $0x20,%rsp
    1bc4:	c6 45 e7 00          	movb   $0x0,-0x19(%rbp)
    1bc8:	48 8d 05 2e 15 00 00 	lea    0x152e(%rip),%rax        # 30fd <_IO_stdin_used+0xfd>
    1bcf:	48 89 c7             	mov    %rax,%rdi
    1bd2:	e8 e9 f4 ff ff       	call   10c0 <puts@plt>
    1bd7:	bf 08 00 00 00       	mov    $0x8,%edi
    1bdc:	e8 98 f9 ff ff       	call   1579 <reserve_words>
    1be1:	48 89 45 e8          	mov    %rax,-0x18(%rbp)
    1be5:	48 83 7d e8 00       	cmpq   $0x0,-0x18(%rbp)
    1bea:	75 0a                	jne    1bf6 <test_memmove1+0x3e>
    1bec:	b8 01 00 00 00       	mov    $0x1,%eax
    1bf1:	e9 b6 00 00 00       	jmp    1cac <test_memmove1+0xf4>
    1bf6:	48 8b 45 e8          	mov    -0x18(%rbp),%rax
    1bfa:	48 89 45 f0          	mov    %rax,-0x10(%rbp)
    1bfe:	48 8b 45 e8          	mov    -0x18(%rbp),%rax
    1c02:	48 83 c0 10          	add    $0x10,%rax
    1c06:	48 89 45 f8          	mov    %rax,-0x8(%rbp)
    1c0a:	c6 45 e6 00          	movb   $0x0,-0x1a(%rbp)
    1c0e:	eb 1b                	jmp    1c2b <test_memmove1+0x73>
    1c10:	0f b6 55 e6          	movzbl -0x1a(%rbp),%edx
    1c14:	48 8b 45 e8          	mov    -0x18(%rbp),%rax
    1c18:	48 01 c2             	add    %rax,%rdx
    1c1b:	0f b6 45 e6          	movzbl -0x1a(%rbp),%eax
    1c1f:	88 02                	mov    %al,(%rdx)
    1c21:	0f b6 45 e6          	movzbl -0x1a(%rbp),%eax
    1c25:	83 c0 01             	add    $0x1,%eax
    1c28:	88 45 e6             	mov    %al,-0x1a(%rbp)
    1c2b:	80 7d e6 1f          	cmpb   $0x1f,-0x1a(%rbp)
    1c2f:	76 df                	jbe    1c10 <test_memmove1+0x58>
    1c31:	48 8b 45 e8          	mov    -0x18(%rbp),%rax
    1c35:	be 20 00 00 00       	mov    $0x20,%esi
    1c3a:	48 89 c7             	mov    %rax,%rdi
    1c3d:	e8 17 fa ff ff       	call   1659 <print_array>
    1c42:	48 8b 4d f8          	mov    -0x8(%rbp),%rcx
    1c46:	48 8b 45 f0          	mov    -0x10(%rbp),%rax
    1c4a:	ba 10 00 00 00       	mov    $0x10,%edx
    1c4f:	48 89 ce             	mov    %rcx,%rsi
    1c52:	48 89 c7             	mov    %rax,%rdi
    1c55:	e8 84 f6 ff ff       	call   12de <my_memmove>
    1c5a:	48 8b 45 e8          	mov    -0x18(%rbp),%rax
    1c5e:	be 20 00 00 00       	mov    $0x20,%esi
    1c63:	48 89 c7             	mov    %rax,%rdi
    1c66:	e8 ee f9 ff ff       	call   1659 <print_array>
    1c6b:	c6 45 e6 00          	movb   $0x0,-0x1a(%rbp)
    1c6f:	eb 25                	jmp    1c96 <test_memmove1+0xde>
    1c71:	0f b6 45 e6          	movzbl -0x1a(%rbp),%eax
    1c75:	48 8d 50 10          	lea    0x10(%rax),%rdx
    1c79:	48 8b 45 e8          	mov    -0x18(%rbp),%rax
    1c7d:	48 01 d0             	add    %rdx,%rax
    1c80:	0f b6 00             	movzbl (%rax),%eax
    1c83:	38 45 e6             	cmp    %al,-0x1a(%rbp)
    1c86:	74 04                	je     1c8c <test_memmove1+0xd4>
    1c88:	c6 45 e7 01          	movb   $0x1,-0x19(%rbp)
    1c8c:	0f b6 45 e6          	movzbl -0x1a(%rbp),%eax
    1c90:	83 c0 01             	add    $0x1,%eax
    1c93:	88 45 e6             	mov    %al,-0x1a(%rbp)
    1c96:	80 7d e6 0f          	cmpb   $0xf,-0x1a(%rbp)
    1c9a:	76 d5                	jbe    1c71 <test_memmove1+0xb9>
    1c9c:	48 8b 45 e8          	mov    -0x18(%rbp),%rax
    1ca0:	48 89 c7             	mov    %rax,%rdi
    1ca3:	e8 09 f9 ff ff       	call   15b1 <free_words>
    1ca8:	0f b6 45 e7          	movzbl -0x19(%rbp),%eax
    1cac:	c9                   	leave
    1cad:	c3                   	ret

0000000000001cae <test_memmove2>:
    1cae:	f3 0f 1e fa          	endbr64
    1cb2:	55                   	push   %rbp
    1cb3:	48 89 e5             	mov    %rsp,%rbp
    1cb6:	48 83 ec 20          	sub    $0x20,%rsp
    1cba:	c6 45 e7 00          	movb   $0x0,-0x19(%rbp)
    1cbe:	48 8d 05 5b 14 00 00 	lea    0x145b(%rip),%rax        # 3120 <_IO_stdin_used+0x120>
    1cc5:	48 89 c7             	mov    %rax,%rdi
    1cc8:	e8 f3 f3 ff ff       	call   10c0 <puts@plt>
    1ccd:	bf 08 00 00 00       	mov    $0x8,%edi
    1cd2:	e8 a2 f8 ff ff       	call   1579 <reserve_words>
    1cd7:	48 89 45 e8          	mov    %rax,-0x18(%rbp)
    1cdb:	48 83 7d e8 00       	cmpq   $0x0,-0x18(%rbp)
    1ce0:	75 0a                	jne    1cec <test_memmove2+0x3e>
    1ce2:	b8 01 00 00 00       	mov    $0x1,%eax
    1ce7:	e9 b6 00 00 00       	jmp    1da2 <test_memmove2+0xf4>
    1cec:	48 8b 45 e8          	mov    -0x18(%rbp),%rax
    1cf0:	48 89 45 f0          	mov    %rax,-0x10(%rbp)
    1cf4:	48 8b 45 e8          	mov    -0x18(%rbp),%rax
    1cf8:	48 83 c0 08          	add    $0x8,%rax
    1cfc:	48 89 45 f8          	mov    %rax,-0x8(%rbp)
    1d00:	c6 45 e6 00          	movb   $0x0,-0x1a(%rbp)
    1d04:	eb 1b                	jmp    1d21 <test_memmove2+0x73>
    1d06:	0f b6 55 e6          	movzbl -0x1a(%rbp),%edx
    1d0a:	48 8b 45 e8          	mov    -0x18(%rbp),%rax
    1d0e:	48 01 c2             	add    %rax,%rdx
    1d11:	0f b6 45 e6          	movzbl -0x1a(%rbp),%eax
    1d15:	88 02                	mov    %al,(%rdx)
    1d17:	0f b6 45 e6          	movzbl -0x1a(%rbp),%eax
    1d1b:	83 c0 01             	add    $0x1,%eax
    1d1e:	88 45 e6             	mov    %al,-0x1a(%rbp)
    1d21:	80 7d e6 1f          	cmpb   $0x1f,-0x1a(%rbp)
    1d25:	76 df                	jbe    1d06 <test_memmove2+0x58>
    1d27:	48 8b 45 e8          	mov    -0x18(%rbp),%rax
    1d2b:	be 20 00 00 00       	mov    $0x20,%esi
    1d30:	48 89 c7             	mov    %rax,%rdi
    1d33:	e8 21 f9 ff ff       	call   1659 <print_array>
    1d38:	48 8b 4d f8          	mov    -0x8(%rbp),%rcx
    1d3c:	48 8b 45 f0          	mov    -0x10(%rbp),%rax
    1d40:	ba 10 00 00 00       	mov    $0x10,%edx
    1d45:	48 89 ce             	mov    %rcx,%rsi
    1d48:	48 89 c7             	mov    %rax,%rdi
    1d4b:	e8 8e f5 ff ff       	call   12de <my_memmove>
    1d50:	48 8b 45 e8          	mov    -0x18(%rbp),%rax
    1d54:	be 20 00 00 00       	mov    $0x20,%esi
    1d59:	48 89 c7             	mov    %rax,%rdi
    1d5c:	e8 f8 f8 ff ff       	call   1659 <print_array>
    1d61:	c6 45 e6 00          	movb   $0x0,-0x1a(%rbp)
    1d65:	eb 25                	jmp    1d8c <test_memmove2+0xde>
    1d67:	0f b6 45 e6          	movzbl -0x1a(%rbp),%eax
    1d6b:	48 8d 50 08          	lea    0x8(%rax),%rdx
    1d6f:	48 8b 45 e8          	mov    -0x18(%rbp),%rax
    1d73:	48 01 d0             	add    %rdx,%rax
    1d76:	0f b6 00             	movzbl (%rax),%eax
    1d79:	38 45 e6             	cmp    %al,-0x1a(%rbp)
    1d7c:	74 04                	je     1d82 <test_memmove2+0xd4>
    1d7e:	c6 45 e7 01          	movb   $0x1,-0x19(%rbp)
    1d82:	0f b6 45 e6          	movzbl -0x1a(%rbp),%eax
    1d86:	83 c0 01             	add    $0x1,%eax
    1d89:	88 45 e6             	mov    %al,-0x1a(%rbp)
    1d8c:	80 7d e6 0f          	cmpb   $0xf,-0x1a(%rbp)
    1d90:	76 d5                	jbe    1d67 <test_memmove2+0xb9>
    1d92:	48 8b 45 e8          	mov    -0x18(%rbp),%rax
    1d96:	48 89 c7             	mov    %rax,%rdi
    1d99:	e8 13 f8 ff ff       	call   15b1 <free_words>
    1d9e:	0f b6 45 e7          	movzbl -0x19(%rbp),%eax
    1da2:	c9                   	leave
    1da3:	c3                   	ret

0000000000001da4 <test_memmove3>:
    1da4:	f3 0f 1e fa          	endbr64
    1da8:	55                   	push   %rbp
    1da9:	48 89 e5             	mov    %rsp,%rbp
    1dac:	48 83 ec 20          	sub    $0x20,%rsp
    1db0:	c6 45 e7 00          	movb   $0x0,-0x19(%rbp)
    1db4:	48 8d 05 9d 13 00 00 	lea    0x139d(%rip),%rax        # 3158 <_IO_stdin_used+0x158>
    1dbb:	48 89 c7             	mov    %rax,%rdi
    1dbe:	e8 fd f2 ff ff       	call   10c0 <puts@plt>
    1dc3:	bf 08 00 00 00       	mov    $0x8,%edi
    1dc8:	e8 ac f7 ff ff       	call   1579 <reserve_words>
    1dcd:	48 89 45 e8          	mov    %rax,-0x18(%rbp)
    1dd1:	48 83 7d e8 00       	cmpq   $0x0,-0x18(%rbp)
    1dd6:	75 0a                	jne    1de2 <test_memmove3+0x3e>
    1dd8:	b8 01 00 00 00       	mov    $0x1,%eax
    1ddd:	e9 bb 00 00 00       	jmp    1e9d <test_memmove3+0xf9>
    1de2:	48 8b 45 e8          	mov    -0x18(%rbp),%rax
    1de6:	48 83 c0 08          	add    $0x8,%rax
    1dea:	48 89 45 f0          	mov    %rax,-0x10(%rbp)
    1dee:	48 8b 45 e8          	mov    -0x18(%rbp),%rax
    1df2:	48 89 45 f8          	mov    %rax,-0x8(%rbp)
    1df6:	c6 45 e6 00          	movb   $0x0,-0x1a(%rbp)
    1dfa:	eb 1b                	jmp    1e17 <test_memmove3+0x73>
    1dfc:	0f b6 55 e6          	movzbl -0x1a(%rbp),%edx
    1e00:	48 8b 45 e8          	mov    -0x18(%rbp),%rax
    1e04:	48 01 c2             	add    %rax,%rdx
    1e07:	0f b6 45 e6          	movzbl -0x1a(%rbp),%eax
    1e0b:	88 02                	mov    %al,(%rdx)
    1e0d:	0f b6 45 e6          	movzbl -0x1a(%rbp),%eax
    1e11:	83 c0 01             	add    $0x1,%eax
    1e14:	88 45 e6             	mov    %al,-0x1a(%rbp)
    1e17:	80 7d e6 1f          	cmpb   $0x1f,-0x1a(%rbp)
    1e1b:	76 df                	jbe    1dfc <test_memmove3+0x58>
    1e1d:	48 8b 45 e8          	mov    -0x18(%rbp),%rax
    1e21:	be 20 00 00 00       	mov    $0x20,%esi
    1e26:	48 89 c7             	mov    %rax,%rdi
    1e29:	e8 2b f8 ff ff       	call   1659 <print_array>
    1e2e:	48 8b 4d f8          	mov    -0x8(%rbp),%rcx
    1e32:	48 8b 45 f0          	mov    -0x10(%rbp),%rax
    1e36:	ba 10 00 00 00       	mov    $0x10,%edx
    1e3b:	48 89 ce             	mov    %rcx,%rsi
    1e3e:	48 89 c7             	mov    %rax,%rdi
    1e41:	e8 98 f4 ff ff       	call   12de <my_memmove>
    1e46:	48 8b 45 e8          	mov    -0x18(%rbp),%rax
    1e4a:	be 20 00 00 00       	mov    $0x20,%esi
    1e4f:	48 89 c7             	mov    %rax,%rdi
    1e52:	e8 02 f8 ff ff       	call   1659 <print_array>
    1e57:	c6 45 e6 00          	movb   $0x0,-0x1a(%rbp)
    1e5b:	eb 2a                	jmp    1e87 <test_memmove3+0xe3>
    1e5d:	0f b6 55 e6          	movzbl -0x1a(%rbp),%edx
    1e61:	48 8b 45 e8          	mov    -0x18(%rbp),%rax
    1e65:	48 01 d0             	add    %rdx,%rax
    1e68:	0f b6 00             	movzbl (%rax),%eax
    1e6b:	0f b6 d0             	movzbl %al,%edx
    1e6e:	0f b6 45 e6          	movzbl -0x1a(%rbp),%eax
    1e72:	83 c0 08             	add    $0x8,%eax
    1e75:	39 c2                	cmp    %eax,%edx
    1e77:	74 04                	je     1e7d <test_memmove3+0xd9>
    1e79:	c6 45 e7 01          	movb   $0x1,-0x19(%rbp)
    1e7d:	0f b6 45 e6          	movzbl -0x1a(%rbp),%eax
    1e81:	83 c0 01             	add    $0x1,%eax
    1e84:	88 45 e6             	mov    %al,-0x1a(%rbp)
    1e87:	80 7d e6 0f          	cmpb   $0xf,-0x1a(%rbp)
    1e8b:	76 d0                	jbe    1e5d <test_memmove3+0xb9>
    1e8d:	48 8b 45 e8          	mov    -0x18(%rbp),%rax
    1e91:	48 89 c7             	mov    %rax,%rdi
    1e94:	e8 18 f7 ff ff       	call   15b1 <free_words>
    1e99:	0f b6 45 e7          	movzbl -0x19(%rbp),%eax
    1e9d:	c9                   	leave
    1e9e:	c3                   	ret

0000000000001e9f <test_memcopy>:
    1e9f:	f3 0f 1e fa          	endbr64
    1ea3:	55                   	push   %rbp
    1ea4:	48 89 e5             	mov    %rsp,%rbp
    1ea7:	48 83 ec 20          	sub    $0x20,%rsp
    1eab:	c6 45 e7 00          	movb   $0x0,-0x19(%rbp)
    1eaf:	48 8d 05 d9 12 00 00 	lea    0x12d9(%rip),%rax        # 318f <_IO_stdin_used+0x18f>
    1eb6:	48 89 c7             	mov    %rax,%rdi
    1eb9:	e8 02 f2 ff ff       	call   10c0 <puts@plt>
    1ebe:	bf 08 00 00 00       	mov    $0x8,%edi
    1ec3:	e8 b1 f6 ff ff       	call   1579 <reserve_words>
    1ec8:	48 89 45 e8          	mov    %rax,-0x18(%rbp)
    1ecc:	48 83 7d e8 00       	cmpq   $0x0,-0x18(%rbp)
    1ed1:	75 0a                	jne    1edd <test_memcopy+0x3e>
    1ed3:	b8 01 00 00 00       	mov    $0x1,%eax
    1ed8:	e9 b6 00 00 00       	jmp    1f93 <test_memcopy+0xf4>
    1edd:	48 8b 45 e8          	mov    -0x18(%rbp),%rax
    1ee1:	48 89 45 f0          	mov    %rax,-0x10(%rbp)
    1ee5:	48 8b 45 e8          	mov    -0x18(%rbp),%rax
    1ee9:	48 83 c0 10          	add    $0x10,%rax
    1eed:	48 89 45 f8          	mov    %rax,-0x8(%rbp)
    1ef1:	c6 45 e6 00          	movb   $0x0,-0x1a(%rbp)
    1ef5:	eb 1b                	jmp    1f12 <test_memcopy+0x73>
    1ef7:	0f b6 55 e6          	movzbl -0x1a(%rbp),%edx
    1efb:	48 8b 45 e8          	mov    -0x18(%rbp),%rax
    1eff:	48 01 c2             	add    %rax,%rdx
    1f02:	0f b6 45 e6          	movzbl -0x1a(%rbp),%eax
    1f06:	88 02                	mov    %al,(%rdx)
    1f08:	0f b6 45 e6          	movzbl -0x1a(%rbp),%eax
    1f0c:	83 c0 01             	add    $0x1,%eax
    1f0f:	88 45 e6             	mov    %al,-0x1a(%rbp)
    1f12:	80 7d e6 1f          	cmpb   $0x1f,-0x1a(%rbp)
    1f16:	76 df                	jbe    1ef7 <test_memcopy+0x58>
    1f18:	48 8b 45 e8          	mov    -0x18(%rbp),%rax
    1f1c:	be 20 00 00 00       	mov    $0x20,%esi
    1f21:	48 89 c7             	mov    %rax,%rdi
    1f24:	e8 30 f7 ff ff       	call   1659 <print_array>
    1f29:	48 8b 4d f8          	mov    -0x8(%rbp),%rcx
    1f2d:	48 8b 45 f0          	mov    -0x10(%rbp),%rax
    1f31:	ba 10 00 00 00       	mov    $0x10,%edx
    1f36:	48 89 ce             	mov    %rcx,%rsi
    1f39:	48 89 c7             	mov    %rax,%rdi
    1f3c:	e8 d9 f4 ff ff       	call   141a <my_memcopy>
    1f41:	48 8b 45 e8          	mov    -0x18(%rbp),%rax
    1f45:	be 20 00 00 00       	mov    $0x20,%esi
    1f4a:	48 89 c7             	mov    %rax,%rdi
    1f4d:	e8 07 f7 ff ff       	call   1659 <print_array>
    1f52:	c6 45 e6 00          	movb   $0x0,-0x1a(%rbp)
    1f56:	eb 25                	jmp    1f7d <test_memcopy+0xde>
    1f58:	0f b6 45 e6          	movzbl -0x1a(%rbp),%eax
    1f5c:	48 8d 50 10          	lea    0x10(%rax),%rdx
    1f60:	48 8b 45 e8          	mov    -0x18(%rbp),%rax
    1f64:	48 01 d0             	add    %rdx,%rax
    1f67:	0f b6 00             	movzbl (%rax),%eax
    1f6a:	38 45 e6             	cmp    %al,-0x1a(%rbp)
    1f6d:	74 04                	je     1f73 <test_memcopy+0xd4>
    1f6f:	c6 45 e7 01          	movb   $0x1,-0x19(%rbp)
    1f73:	0f b6 45 e6          	movzbl -0x1a(%rbp),%eax
    1f77:	83 c0 01             	add    $0x1,%eax
    1f7a:	88 45 e6             	mov    %al,-0x1a(%rbp)
    1f7d:	80 7d e6 0f          	cmpb   $0xf,-0x1a(%rbp)
    1f81:	76 d5                	jbe    1f58 <test_memcopy+0xb9>
    1f83:	48 8b 45 e8          	mov    -0x18(%rbp),%rax
    1f87:	48 89 c7             	mov    %rax,%rdi
    1f8a:	e8 22 f6 ff ff       	call   15b1 <free_words>
    1f8f:	0f b6 45 e7          	movzbl -0x19(%rbp),%eax
    1f93:	c9                   	leave
    1f94:	c3                   	ret

0000000000001f95 <test_memset>:
    1f95:	f3 0f 1e fa          	endbr64
    1f99:	55                   	push   %rbp
    1f9a:	48 89 e5             	mov    %rsp,%rbp
    1f9d:	48 83 ec 20          	sub    $0x20,%rsp
    1fa1:	c6 45 e7 00          	movb   $0x0,-0x19(%rbp)
    1fa5:	48 8d 05 f2 11 00 00 	lea    0x11f2(%rip),%rax        # 319e <_IO_stdin_used+0x19e>
    1fac:	48 89 c7             	mov    %rax,%rdi
    1faf:	e8 0c f1 ff ff       	call   10c0 <puts@plt>
    1fb4:	bf 08 00 00 00       	mov    $0x8,%edi
    1fb9:	e8 bb f5 ff ff       	call   1579 <reserve_words>
    1fbe:	48 89 45 e8          	mov    %rax,-0x18(%rbp)
    1fc2:	48 83 7d e8 00       	cmpq   $0x0,-0x18(%rbp)
    1fc7:	75 0a                	jne    1fd3 <test_memset+0x3e>
    1fc9:	b8 01 00 00 00       	mov    $0x1,%eax
    1fce:	e9 ed 00 00 00       	jmp    20c0 <test_memset+0x12b>
    1fd3:	48 8b 45 e8          	mov    -0x18(%rbp),%rax
    1fd7:	48 89 45 f0          	mov    %rax,-0x10(%rbp)
    1fdb:	48 8b 45 e8          	mov    -0x18(%rbp),%rax
    1fdf:	48 83 c0 10          	add    $0x10,%rax
    1fe3:	48 89 45 f8          	mov    %rax,-0x8(%rbp)
    1fe7:	c6 45 e6 00          	movb   $0x0,-0x1a(%rbp)
    1feb:	eb 1b                	jmp    2008 <test_memset+0x73>
    1fed:	0f b6 55 e6          	movzbl -0x1a(%rbp),%edx
    1ff1:	48 8b 45 e8          	mov    -0x18(%rbp),%rax
    1ff5:	48 01 c2             	add    %rax,%rdx
    1ff8:	0f b6 45 e6          	movzbl -0x1a(%rbp),%eax
    1ffc:	88 02                	mov    %al,(%rdx)
    1ffe:	0f b6 45 e6          	movzbl -0x1a(%rbp),%eax
    2002:	83 c0 01             	add    $0x1,%eax
    2005:	88 45 e6             	mov    %al,-0x1a(%rbp)
    2008:	80 7d e6 1f          	cmpb   $0x1f,-0x1a(%rbp)
    200c:	76 df                	jbe    1fed <test_memset+0x58>
    200e:	48 8b 45 e8          	mov    -0x18(%rbp),%rax
    2012:	be 20 00 00 00       	mov    $0x20,%esi
    2017:	48 89 c7             	mov    %rax,%rdi
    201a:	e8 3a f6 ff ff       	call   1659 <print_array>
    201f:	48 8b 45 f0          	mov    -0x10(%rbp),%rax
    2023:	ba ff 00 00 00       	mov    $0xff,%edx
    2028:	be 20 00 00 00       	mov    $0x20,%esi
    202d:	48 89 c7             	mov    %rax,%rdi
    2030:	e8 34 f4 ff ff       	call   1469 <my_memset>
    2035:	48 8b 45 e8          	mov    -0x18(%rbp),%rax
    2039:	be 20 00 00 00       	mov    $0x20,%esi
    203e:	48 89 c7             	mov    %rax,%rdi
    2041:	e8 13 f6 ff ff       	call   1659 <print_array>
    2046:	48 8b 45 f8          	mov    -0x8(%rbp),%rax
    204a:	be 10 00 00 00       	mov    $0x10,%esi
    204f:	48 89 c7             	mov    %rax,%rdi
    2052:	e8 58 f4 ff ff       	call   14af <my_memzero>
    2057:	48 8b 45 e8          	mov    -0x18(%rbp),%rax
    205b:	be 20 00 00 00       	mov    $0x20,%esi
    2060:	48 89 c7             	mov    %rax,%rdi
    2063:	e8 f1 f5 ff ff       	call   1659 <print_array>
    2068:	c6 45 e6 00          	movb   $0x0,-0x1a(%rbp)
    206c:	eb 3c                	jmp    20aa <test_memset+0x115>
    206e:	0f b6 55 e6          	movzbl -0x1a(%rbp),%edx
    2072:	48 8b 45 e8          	mov    -0x18(%rbp),%rax
    2076:	48 01 d0             	add    %rdx,%rax
    2079:	0f b6 00             	movzbl (%rax),%eax
    207c:	3c ff                	cmp    $0xff,%al
    207e:	74 04                	je     2084 <test_memset+0xef>
    2080:	c6 45 e7 01          	movb   $0x1,-0x19(%rbp)
    2084:	0f b6 45 e6          	movzbl -0x1a(%rbp),%eax
    2088:	83 c0 10             	add    $0x10,%eax
    208b:	48 63 d0             	movslq %eax,%rdx
    208e:	48 8b 45 e8          	mov    -0x18(%rbp),%rax
    2092:	48 01 d0             	add    %rdx,%rax
    2095:	0f b6 00             	movzbl (%rax),%eax
    2098:	84 c0                	test   %al,%al
    209a:	74 04                	je     20a0 <test_memset+0x10b>
    209c:	c6 45 e7 01          	movb   $0x1,-0x19(%rbp)
    20a0:	0f b6 45 e6          	movzbl -0x1a(%rbp),%eax
    20a4:	83 c0 01             	add    $0x1,%eax
    20a7:	88 45 e6             	mov    %al,-0x1a(%rbp)
    20aa:	80 7d e6 0f          	cmpb   $0xf,-0x1a(%rbp)
    20ae:	76 be                	jbe    206e <test_memset+0xd9>
    20b0:	48 8b 45 e8          	mov    -0x18(%rbp),%rax
    20b4:	48 89 c7             	mov    %rax,%rdi
    20b7:	e8 f5 f4 ff ff       	call   15b1 <free_words>
    20bc:	0f b6 45 e7          	movzbl -0x19(%rbp),%eax
    20c0:	c9                   	leave
    20c1:	c3                   	ret

00000000000020c2 <test_reverse>:
    20c2:	f3 0f 1e fa          	endbr64
    20c6:	55                   	push   %rbp
    20c7:	48 89 e5             	mov    %rsp,%rbp
    20ca:	48 83 ec 40          	sub    $0x40,%rsp
    20ce:	64 48 8b 04 25 28 00 	mov    %fs:0x28,%rax
    20d5:	00 00 
    20d7:	48 89 45 f8          	mov    %rax,-0x8(%rbp)
    20db:	31 c0                	xor    %eax,%eax
    20dd:	c6 45 c7 00          	movb   $0x0,-0x39(%rbp)
    20e1:	48 b8 3f 73 72 33 54 	movabs $0x267243543372733f,%rax
    20e8:	43 72 26 
    20eb:	48 ba 48 63 20 66 6f 	movabs $0x3320006f66206348,%rdx
    20f2:	00 20 33 
    20f5:	48 89 45 d0          	mov    %rax,-0x30(%rbp)
    20f9:	48 89 55 d8          	mov    %rdx,-0x28(%rbp)
    20fd:	48 b8 72 75 74 78 21 	movabs $0x40204d2178747572,%rax
    2104:	4d 20 40 
    2107:	48 ba 20 24 7c 20 24 	movabs $0x54686924207c2420,%rdx
    210e:	69 68 54 
    2111:	48 89 45 e0          	mov    %rax,-0x20(%rbp)
    2115:	48 89 55 e8          	mov    %rdx,-0x18(%rbp)
    2119:	48 8d 05 8c 10 00 00 	lea    0x108c(%rip),%rax        # 31ac <_IO_stdin_used+0x1ac>
    2120:	48 89 c7             	mov    %rax,%rdi
    2123:	e8 98 ef ff ff       	call   10c0 <puts@plt>
    2128:	bf 08 00 00 00       	mov    $0x8,%edi
    212d:	e8 47 f4 ff ff       	call   1579 <reserve_words>
    2132:	48 89 45 c8          	mov    %rax,-0x38(%rbp)
    2136:	48 83 7d c8 00       	cmpq   $0x0,-0x38(%rbp)
    213b:	75 0a                	jne    2147 <test_reverse+0x85>
    213d:	b8 01 00 00 00       	mov    $0x1,%eax
    2142:	e9 a0 00 00 00       	jmp    21e7 <test_reverse+0x125>
    2147:	48 8b 4d c8          	mov    -0x38(%rbp),%rcx
    214b:	48 8d 45 d0          	lea    -0x30(%rbp),%rax
    214f:	ba 20 00 00 00       	mov    $0x20,%edx
    2154:	48 89 ce             	mov    %rcx,%rsi
    2157:	48 89 c7             	mov    %rax,%rdi
    215a:	e8 bb f2 ff ff       	call   141a <my_memcopy>
    215f:	48 8d 45 d0          	lea    -0x30(%rbp),%rax
    2163:	be 20 00 00 00       	mov    $0x20,%esi
    2168:	48 89 c7             	mov    %rax,%rdi
    216b:	e8 e9 f4 ff ff       	call   1659 <print_array>
    2170:	48 8d 45 d0          	lea    -0x30(%rbp),%rax
    2174:	be 20 00 00 00       	mov    $0x20,%esi
    2179:	48 89 c7             	mov    %rax,%rdi
    217c:	e8 6c f3 ff ff       	call   14ed <my_reverse>
    2181:	48 8d 45 d0          	lea    -0x30(%rbp),%rax
    2185:	be 20 00 00 00       	mov    $0x20,%esi
    218a:	48 89 c7             	mov    %rax,%rdi
    218d:	e8 c7 f4 ff ff       	call   1659 <print_array>
    2192:	c6 45 c6 00          	movb   $0x0,-0x3a(%rbp)
    2196:	eb 39                	jmp    21d1 <test_reverse+0x10f>
    2198:	0f b6 45 c6          	movzbl -0x3a(%rbp),%eax
    219c:	48 98                	cltq
    219e:	0f b6 54 05 d0       	movzbl -0x30(%rbp,%rax,1),%edx
    21a3:	0f b6 45 c6          	movzbl -0x3a(%rbp),%eax
    21a7:	b9 20 00 00 00       	mov    $0x20,%ecx
    21ac:	29 c1                	sub    %eax,%ecx
    21ae:	48 63 c1             	movslq %ecx,%rax
    21b1:	48 8d 48 ff          	lea    -0x1(%rax),%rcx
    21b5:	48 8b 45 c8          	mov    -0x38(%rbp),%rax
    21b9:	48 01 c8             	add    %rcx,%rax
    21bc:	0f b6 00             	movzbl (%rax),%eax
    21bf:	38 c2                	cmp    %al,%dl
    21c1:	74 04                	je     21c7 <test_reverse+0x105>
    21c3:	c6 45 c7 01          	movb   $0x1,-0x39(%rbp)
    21c7:	0f b6 45 c6          	movzbl -0x3a(%rbp),%eax
    21cb:	83 c0 01             	add    $0x1,%eax
    21ce:	88 45 c6             	mov    %al,-0x3a(%rbp)
    21d1:	80 7d c6 1f          	cmpb   $0x1f,-0x3a(%rbp)
    21d5:	76 c1                	jbe    2198 <test_reverse+0xd6>
    21d7:	48 8b 45 c8          	mov    -0x38(%rbp),%rax
    21db:	48 89 c7             	mov    %rax,%rdi
    21de:	e8 ce f3 ff ff       	call   15b1 <free_words>
    21e3:	0f b6 45 c7          	movzbl -0x39(%rbp),%eax
    21e7:	48 8b 55 f8          	mov    -0x8(%rbp),%rdx
    21eb:	64 48 2b 14 25 28 00 	sub    %fs:0x28,%rdx
    21f2:	00 00 
    21f4:	74 05                	je     21fb <test_reverse+0x139>
    21f6:	e8 d5 ee ff ff       	call   10d0 <__stack_chk_fail@plt>
    21fb:	c9                   	leave
    21fc:	c3                   	ret

00000000000021fd <course1>:
    21fd:	f3 0f 1e fa          	endbr64
    2201:	55                   	push   %rbp
    2202:	48 89 e5             	mov    %rsp,%rbp
    2205:	48 83 ec 20          	sub    $0x20,%rsp
    2209:	64 48 8b 04 25 28 00 	mov    %fs:0x28,%rax
    2210:	00 00 
    2212:	48 89 45 f8          	mov    %rax,-0x8(%rbp)
    2216:	31 c0                	xor    %eax,%eax
    2218:	c6 45 ef 00          	movb   $0x0,-0x11(%rbp)
    221c:	b8 00 00 00 00       	mov    $0x0,%eax
    2221:	e8 f8 f7 ff ff       	call   1a1e <test_data1>
    2226:	88 45 f0             	mov    %al,-0x10(%rbp)
    2229:	b8 00 00 00 00       	mov    $0x0,%eax
    222e:	e8 b8 f8 ff ff       	call   1aeb <test_data2>
    2233:	88 45 f1             	mov    %al,-0xf(%rbp)
    2236:	b8 00 00 00 00       	mov    $0x0,%eax
    223b:	e8 78 f9 ff ff       	call   1bb8 <test_memmove1>
    2240:	88 45 f2             	mov    %al,-0xe(%rbp)
    2243:	b8 00 00 00 00       	mov    $0x0,%eax
    2248:	e8 61 fa ff ff       	call   1cae <test_memmove2>
    224d:	88 45 f3             	mov    %al,-0xd(%rbp)
    2250:	b8 00 00 00 00       	mov    $0x0,%eax
    2255:	e8 4a fb ff ff       	call   1da4 <test_memmove3>
    225a:	88 45 f4             	mov    %al,-0xc(%rbp)
    225d:	b8 00 00 00 00       	mov    $0x0,%eax
    2262:	e8 38 fc ff ff       	call   1e9f <test_memcopy>
    2267:	88 45 f5             	mov    %al,-0xb(%rbp)
    226a:	b8 00 00 00 00       	mov    $0x0,%eax
    226f:	e8 21 fd ff ff       	call   1f95 <test_memset>
    2274:	88 45 f6             	mov    %al,-0xa(%rbp)
    2277:	b8 00 00 00 00       	mov    $0x0,%eax
    227c:	e8 41 fe ff ff       	call   20c2 <test_reverse>
    2281:	88 45 f7             	mov    %al,-0x9(%rbp)
    2284:	c6 45 ee 00          	movb   $0x0,-0x12(%rbp)
    2288:	eb 20                	jmp    22aa <course1+0xad>
    228a:	0f b6 45 ee          	movzbl -0x12(%rbp),%eax
    228e:	48 98                	cltq
    2290:	0f b6 44 05 f0       	movzbl -0x10(%rbp,%rax,1),%eax
    2295:	89 c2                	mov    %eax,%edx
    2297:	0f b6 45 ef          	movzbl -0x11(%rbp),%eax
    229b:	01 d0                	add    %edx,%eax
    229d:	88 45 ef             	mov    %al,-0x11(%rbp)
    22a0:	0f b6 45 ee          	movzbl -0x12(%rbp),%eax
    22a4:	83 c0 01             	add    $0x1,%eax
    22a7:	88 45 ee             	mov    %al,-0x12(%rbp)
    22aa:	80 7d ee 07          	cmpb   $0x7,-0x12(%rbp)
    22ae:	76 da                	jbe    228a <course1+0x8d>
    22b0:	48 8d 05 09 0f 00 00 	lea    0xf09(%rip),%rax        # 31c0 <_IO_stdin_used+0x1c0>
    22b7:	48 89 c7             	mov    %rax,%rdi
    22ba:	e8 01 ee ff ff       	call   10c0 <puts@plt>
    22bf:	48 8d 05 1b 0f 00 00 	lea    0xf1b(%rip),%rax        # 31e1 <_IO_stdin_used+0x1e1>
    22c6:	48 89 c7             	mov    %rax,%rdi
    22c9:	e8 f2 ed ff ff       	call   10c0 <puts@plt>
    22ce:	0f be 55 ef          	movsbl -0x11(%rbp),%edx
    22d2:	b8 08 00 00 00       	mov    $0x8,%eax
    22d7:	29 d0                	sub    %edx,%eax
    22d9:	ba 08 00 00 00       	mov    $0x8,%edx
    22de:	89 c6                	mov    %eax,%esi
    22e0:	48 8d 05 08 0f 00 00 	lea    0xf08(%rip),%rax        # 31ef <_IO_stdin_used+0x1ef>
    22e7:	48 89 c7             	mov    %rax,%rdi
    22ea:	b8 00 00 00 00       	mov    $0x0,%eax
    22ef:	e8 ec ed ff ff       	call   10e0 <printf@plt>
    22f4:	0f be 45 ef          	movsbl -0x11(%rbp),%eax
    22f8:	ba 08 00 00 00       	mov    $0x8,%edx
    22fd:	89 c6                	mov    %eax,%esi
    22ff:	48 8d 05 fc 0e 00 00 	lea    0xefc(%rip),%rax        # 3202 <_IO_stdin_used+0x202>
    2306:	48 89 c7             	mov    %rax,%rdi
    2309:	b8 00 00 00 00       	mov    $0x0,%eax
    230e:	e8 cd ed ff ff       	call   10e0 <printf@plt>
    2313:	48 8d 05 a6 0e 00 00 	lea    0xea6(%rip),%rax        # 31c0 <_IO_stdin_used+0x1c0>
    231a:	48 89 c7             	mov    %rax,%rdi
    231d:	e8 9e ed ff ff       	call   10c0 <puts@plt>
    2322:	90                   	nop
    2323:	48 8b 45 f8          	mov    -0x8(%rbp),%rax
    2327:	64 48 2b 04 25 28 00 	sub    %fs:0x28,%rax
    232e:	00 00 
    2330:	74 05                	je     2337 <course1+0x13a>
    2332:	e8 99 ed ff ff       	call   10d0 <__stack_chk_fail@plt>
    2337:	c9                   	leave
    2338:	c3                   	ret

0000000000002339 <my_itoa>:
    2339:	f3 0f 1e fa          	endbr64
    233d:	55                   	push   %rbp
    233e:	48 89 e5             	mov    %rsp,%rbp
    2341:	48 83 ec 20          	sub    $0x20,%rsp
    2345:	89 7d ec             	mov    %edi,-0x14(%rbp)
    2348:	48 89 75 e0          	mov    %rsi,-0x20(%rbp)
    234c:	89 55 e8             	mov    %edx,-0x18(%rbp)
    234f:	c6 45 fc 00          	movb   $0x0,-0x4(%rbp)
    2353:	c6 45 fd 00          	movb   $0x0,-0x3(%rbp)
    2357:	83 7d ec 00          	cmpl   $0x0,-0x14(%rbp)
    235b:	75 2d                	jne    238a <my_itoa+0x51>
    235d:	0f b6 55 fc          	movzbl -0x4(%rbp),%edx
    2361:	48 8b 45 e0          	mov    -0x20(%rbp),%rax
    2365:	48 01 d0             	add    %rdx,%rax
    2368:	c6 00 30             	movb   $0x30,(%rax)
    236b:	80 45 fc 01          	addb   $0x1,-0x4(%rbp)
    236f:	0f b6 55 fc          	movzbl -0x4(%rbp),%edx
    2373:	48 8b 45 e0          	mov    -0x20(%rbp),%rax
    2377:	48 01 d0             	add    %rdx,%rax
    237a:	c6 00 00             	movb   $0x0,(%rax)
    237d:	80 45 fc 01          	addb   $0x1,-0x4(%rbp)
    2381:	0f b6 45 fc          	movzbl -0x4(%rbp),%eax
    2385:	e9 a9 00 00 00       	jmp    2433 <my_itoa+0xfa>
    238a:	83 7d ec 00          	cmpl   $0x0,-0x14(%rbp)
    238e:	79 56                	jns    23e6 <my_itoa+0xad>
    2390:	c6 45 fd 01          	movb   $0x1,-0x3(%rbp)
    2394:	f7 5d ec             	negl   -0x14(%rbp)
    2397:	eb 4d                	jmp    23e6 <my_itoa+0xad>
    2399:	8b 45 ec             	mov    -0x14(%rbp),%eax
    239c:	ba 00 00 00 00       	mov    $0x0,%edx
    23a1:	f7 75 e8             	divl   -0x18(%rbp)
    23a4:	89 d0                	mov    %edx,%eax
    23a6:	66 89 45 fe          	mov    %ax,-0x2(%rbp)
    23aa:	66 83 7d fe 09       	cmpw   $0x9,-0x2(%rbp)
    23af:	76 09                	jbe    23ba <my_itoa+0x81>
    23b1:	0f b7 45 fe          	movzwl -0x2(%rbp),%eax
    23b5:	83 c0 57             	add    $0x57,%eax
    23b8:	eb 07                	jmp    23c1 <my_itoa+0x88>
    23ba:	0f b7 45 fe          	movzwl -0x2(%rbp),%eax
    23be:	83 c0 30             	add    $0x30,%eax
    23c1:	0f b6 4d fc          	movzbl -0x4(%rbp),%ecx
    23c5:	48 8b 55 e0          	mov    -0x20(%rbp),%rdx
    23c9:	48 01 ca             	add    %rcx,%rdx
    23cc:	88 02                	mov    %al,(%rdx)
    23ce:	0f b6 45 fc          	movzbl -0x4(%rbp),%eax
    23d2:	83 c0 01             	add    $0x1,%eax
    23d5:	88 45 fc             	mov    %al,-0x4(%rbp)
    23d8:	8b 45 ec             	mov    -0x14(%rbp),%eax
    23db:	ba 00 00 00 00       	mov    $0x0,%edx
    23e0:	f7 75 e8             	divl   -0x18(%rbp)
    23e3:	89 45 ec             	mov    %eax,-0x14(%rbp)
    23e6:	83 7d ec 00          	cmpl   $0x0,-0x14(%rbp)
    23ea:	75 ad                	jne    2399 <my_itoa+0x60>
    23ec:	80 7d fd 00          	cmpb   $0x0,-0x3(%rbp)
    23f0:	74 12                	je     2404 <my_itoa+0xcb>
    23f2:	0f b6 55 fc          	movzbl -0x4(%rbp),%edx
    23f6:	48 8b 45 e0          	mov    -0x20(%rbp),%rax
    23fa:	48 01 d0             	add    %rdx,%rax
    23fd:	c6 00 2d             	movb   $0x2d,(%rax)
    2400:	80 45 fc 01          	addb   $0x1,-0x4(%rbp)
    2404:	80 45 fc 01          	addb   $0x1,-0x4(%rbp)
    2408:	0f b6 55 fc          	movzbl -0x4(%rbp),%edx
    240c:	48 8b 45 e0          	mov    -0x20(%rbp),%rax
    2410:	48 01 d0             	add    %rdx,%rax
    2413:	c6 00 00             	movb   $0x0,(%rax)
    2416:	0f b6 45 fc          	movzbl -0x4(%rbp),%eax
    241a:	83 e8 01             	sub    $0x1,%eax
    241d:	48 63 d0             	movslq %eax,%rdx
    2420:	48 8b 45 e0          	mov    -0x20(%rbp),%rax
    2424:	48 89 d6             	mov    %rdx,%rsi
    2427:	48 89 c7             	mov    %rax,%rdi
    242a:	e8 be f0 ff ff       	call   14ed <my_reverse>
    242f:	0f b6 45 fc          	movzbl -0x4(%rbp),%eax
    2433:	c9                   	leave
    2434:	c3                   	ret

0000000000002435 <my_atoi>:
    2435:	f3 0f 1e fa          	endbr64
    2439:	55                   	push   %rbp
    243a:	48 89 e5             	mov    %rsp,%rbp
    243d:	48 89 7d e8          	mov    %rdi,-0x18(%rbp)
    2441:	89 f0                	mov    %esi,%eax
    2443:	89 55 e0             	mov    %edx,-0x20(%rbp)
    2446:	88 45 e4             	mov    %al,-0x1c(%rbp)
    2449:	c6 45 fa 01          	movb   $0x1,-0x6(%rbp)
    244d:	c7 45 fc 00 00 00 00 	movl   $0x0,-0x4(%rbp)
    2454:	48 8b 45 e8          	mov    -0x18(%rbp),%rax
    2458:	0f b6 00             	movzbl (%rax),%eax
    245b:	3c 2d                	cmp    $0x2d,%al
    245d:	75 0d                	jne    246c <my_atoi+0x37>
    245f:	c6 45 fa ff          	movb   $0xff,-0x6(%rbp)
    2463:	48 83 45 e8 01       	addq   $0x1,-0x18(%rbp)
    2468:	80 6d e4 01          	subb   $0x1,-0x1c(%rbp)
    246c:	80 6d e4 01          	subb   $0x1,-0x1c(%rbp)
    2470:	c6 45 fb 00          	movb   $0x0,-0x5(%rbp)
    2474:	eb 2a                	jmp    24a0 <my_atoi+0x6b>
    2476:	8b 45 fc             	mov    -0x4(%rbp),%eax
    2479:	0f af 45 e0          	imul   -0x20(%rbp),%eax
    247d:	89 c2                	mov    %eax,%edx
    247f:	48 8b 45 e8          	mov    -0x18(%rbp),%rax
    2483:	0f b6 00             	movzbl (%rax),%eax
    2486:	0f b6 c0             	movzbl %al,%eax
    2489:	01 d0                	add    %edx,%eax
    248b:	83 e8 30             	sub    $0x30,%eax
    248e:	89 45 fc             	mov    %eax,-0x4(%rbp)
    2491:	48 83 45 e8 01       	addq   $0x1,-0x18(%rbp)
    2496:	0f b6 45 fb          	movzbl -0x5(%rbp),%eax
    249a:	83 c0 01             	add    $0x1,%eax
    249d:	88 45 fb             	mov    %al,-0x5(%rbp)
    24a0:	0f b6 45 fb          	movzbl -0x5(%rbp),%eax
    24a4:	3a 45 e4             	cmp    -0x1c(%rbp),%al
    24a7:	72 cd                	jb     2476 <my_atoi+0x41>
    24a9:	0f be 45 fa          	movsbl -0x6(%rbp),%eax
    24ad:	0f af 45 fc          	imul   -0x4(%rbp),%eax
    24b1:	5d                   	pop    %rbp
    24b2:	c3                   	ret

Disassembly of section .fini:

00000000000024b4 <_fini>:
    24b4:	f3 0f 1e fa          	endbr64
    24b8:	48 83 ec 08          	sub    $0x8,%rsp
    24bc:	48 83 c4 08          	add    $0x8,%rsp
    24c0:	c3                   	ret
